Certificate:
    Data:
        Version: 3 (0x2)
        Serial Number: 268435664 (0x100000d0)
    Signature Algorithm: sha256WithRSAEncryption
        Issuer: C=DE, ST=Hessen, O=privacyidea, CN=CA001
        Validity
            Not Before: Sep  7 09:05:00 2018 GMT
            Not After : Sep  7 09:05:00 2019 GMT
        Subject: C=DE, ST=Hessen, O=privacyidea, CN=requester.localdomain
        Subject Public Key Info:
            Public Key Algorithm: rsaEncryption
                Public-Key: (2048 bit)
                Modulus:
                    00:cd:be:14:4f:fa:ce:01:3f:42:22:1b:1d:9c:af:
                    dd:92:d2:7f:db:6c:b7:3e:39:43:43:6b:13:03:f1:
                    05:f4:07:74:bc:76:69:28:0b:af:19:8e:d7:fc:e3:
                    cd:c6:58:f2:ca:7f:08:6d:53:fc:07:02:44:24:c6:
                    b4:34:4c:8c:04:fe:33:0e:40:e2:20:ba:02:73:5a:
                    f7:f5:4f:63:6e:cc:c6:b6:df:54:1d:37:39:7d:51:
                    36:26:5f:bd:dc:3f:a8:8b:6b:a2:ae:b6:9d:d6:21:
                    e7:df:41:b8:7a:28:2a:68:48:ca:a8:2d:ed:e1:e9:
                    46:5e:5a:72:6d:b4:84:38:87:91:fd:94:11:0b:28:
                    84:c6:c2:2f:2a:fb:01:f9:36:7a:09:75:d1:33:88:
                    3c:73:41:5b:c8:bf:94:89:70:a1:f0:c0:b9:2e:50:
                    53:1e:b1:17:64:69:f4:2d:81:e0:a9:0d:0e:32:e9:
                    ba:55:8a:85:f1:1b:6f:49:79:b4:7f:88:c3:0d:3e:
                    54:88:9b:3d:1f:38:8c:04:f3:ee:6a:63:2b:f5:c6:
                    db:b4:83:aa:c4:78:41:3a:7d:4b:e1:c8:3e:71:ca:
                    1b:61:59:ea:c6:c4:ca:32:5e:c9:e9:bf:12:29:e6:
                    c6:c3:63:fe:a0:55:da:7a:f1:60:98:4d:26:ed:fa:
                    70:2d
                Exponent: 65537 (0x10001)
        X509v3 extensions:
            X509v3 Key Usage: 
                Digital Signature, Key Encipherment
            X509v3 Basic Constraints: 
                CA:FALSE
            Netscape Cert Type: 
                SSL Server
            Netscape Comment: 
                OpenSSL Generated Server Certificate
            X509v3 Subject Key Identifier: 
                53:3F:ED:5D:09:07:B3:65:7B:AB:45:C9:24:5B:09:77:80:0A:96:ED
            X509v3 Authority Key Identifier: 
                keyid:F4:A7:C0:CC:91:46:AF:64:F3:91:F2:27:F8:C8:B2:6F:8A:87:32:73
                DirName:/C=DE/ST=Hessen/O=privacyidea/CN=CA001
                serial:FB:C8:EB:AC:83:CD:12:07

            X509v3 Extended Key Usage: 
                TLS Web Server Authentication
    Signature Algorithm: sha256WithRSAEncryption
         71:a6:0a:31:14:54:e1:62:94:b7:cf:2d:8d:83:1e:d3:4e:bf:
         aa:d9:11:7a:ab:d7:0b:ae:7e:4f:30:1f:21:42:a5:22:03:18:
         c1:b0:76:a8:e8:22:ce:2e:37:55:cc:28:81:0c:e4:df:6a:33:
         86:49:8f:38:cb:91:ec:7e:10:7e:7d:bc:c2:ce:3f:5a:f1:73:
         6b:62:4b:cd:91:1e:a3:dc:0b:ff:33:36:1c:dd:6c:c2:3c:53:
         61:ba:7c:3e:98:b2:bf:12:1e:48:f9:18:52:af:07:80:c8:9e:
         70:7a:07:54:8d:ed:18:a5:29:92:a5:e4:56:52:9b:aa:f7:13:
         ad:4a:7d:ce:3d:32:f2:38:7f:cb:9a:f9:0d:d3:57:c7:71:7c:
         75:cf:74:1e:ff:31:f3:09:37:c2:29:17:05:e8:6a:ce:79:a7:
         d2:04:b8:55:38:6e:06:b5:be:3a:bb:85:f3:dc:a1:94:29:96:
         5a:40:31:72:81:a2:19:be:41:73:e9:b5:eb:8a:a8:01:ea:6f:
         75:62:a1:df:84:44:04:f6:5b:cb:48:19:f9:f2:ee:c7:66:a7:
         d1:67:39:2e:aa:26:c6:50:c8:8b:51:9c:ee:1a:04:29:a2:d8:
         1f:7c:1d:c4:51:f8:c6:de:40:c1:b3:fd:76:bb:c7:66:9a:73:
         ec:38:93:97
-----BEGIN CERTIFICATE-----
MIIEJjCCAw6gAwIBAgIEEAAA0DANBgkqhkiG9w0BAQsFADBEMQswCQYDVQQGEwJE
RTEPMA0GA1UECAwGSGVzc2VuMRQwEgYDVQQKDAtwcml2YWN5aWRlYTEOMAwGA1UE
AwwFQ0EwMDEwHhcNMTgwOTA3MDkwNTAwWhcNMTkwOTA3MDkwNTAwWjBUMQswCQYD
VQQGEwJERTEPMA0GA1UECAwGSGVzc2VuMRQwEgYDVQQKDAtwcml2YWN5aWRlYTEe
MBwGA1UEAwwVcmVxdWVzdGVyLmxvY2FsZG9tYWluMIIBIjANBgkqhkiG9w0BAQEF
AAOCAQ8AMIIBCgKCAQEAzb4UT/rOAT9CIhsdnK/dktJ/22y3PjlDQ2sTA/EF9Ad0
vHZpKAuvGY7X/OPNxljyyn8IbVP8BwJEJMa0NEyMBP4zDkDiILoCc1r39U9jbszG
tt9UHTc5fVE2Jl+93D+oi2uirrad1iHn30G4eigqaEjKqC3t4elGXlpybbSEOIeR
/ZQRCyiExsIvKvsB+TZ6CXXRM4g8c0FbyL+UiXCh8MC5LlBTHrEXZGn0LYHgqQ0O
Mum6VYqF8RtvSXm0f4jDDT5UiJs9HziMBPPuamMr9cbbtIOqxHhBOn1L4cg+ccob
YVnqxsTKMl7J6b8SKebGw2P+oFXaevFgmE0m7fpwLQIDAQABo4IBDjCCAQowCwYD
VR0PBAQDAgWgMAkGA1UdEwQCMAAwEQYJYIZIAYb4QgEBBAQDAgZAMDMGCWCGSAGG
+EIBDQQmFiRPcGVuU1NMIEdlbmVyYXRlZCBTZXJ2ZXIgQ2VydGlmaWNhdGUwHQYD
VR0OBBYEFFM/7V0JB7Nle6tFySRbCXeACpbtMHQGA1UdIwRtMGuAFPSnwMyRRq9k
85HyJ/jIsm+KhzJzoUikRjBEMQswCQYDVQQGEwJERTEPMA0GA1UECAwGSGVzc2Vu
MRQwEgYDVQQKDAtwcml2YWN5aWRlYTEOMAwGA1UEAwwFQ0EwMDGCCQD7yOusg80S
BzATBgNVHSUEDDAKBggrBgEFBQcDATANBgkqhkiG9w0BAQsFAAOCAQEAcaYKMRRU
4WKUt88tjYMe006/qtkReqvXC65+TzAfIUKlIgMYwbB2qOgizi43VcwogQzk32oz
hkmPOMuR7H4Qfn28ws4/WvFza2JLzZEeo9wL/zM2HN1swjxTYbp8PpiyvxIeSPkY
Uq8HgMiecHoHVI3tGKUpkqXkVlKbqvcTrUp9zj0y8jh/y5r5DdNXx3F8dc90Hv8x
8wk3wikXBehqznmn0gS4VThuBrW+OruF89yhlCmWWkAxcoGiGb5Bc+m164qoAepv
dWKh34REBPZby0gZ+fLux2an0Wc5LqomxlDIi1Gc7hoEKaLYH3wdxFH4xt5AwbP9
drvHZppz7DiTlw==
-----END CERTIFICATE-----
