Certificate:
    Data:
        Version: 3 (0x2)
        Serial Number: 268435669 (0x100000d5)
    Signature Algorithm: sha256WithRSAEncryption
        Issuer: C=DE, ST=Hessen, O=privacyidea, CN=CA001
        Validity
            Not Before: Aug 16 14:18:55 2018 GMT
            Not After : Aug 16 14:18:55 2019 GMT
        Subject: C=DE, ST=Hessen, O=privacyidea, CN=requester.localdomain
        Subject Public Key Info:
            Public Key Algorithm: rsaEncryption
                Public-Key: (2048 bit)
                Modulus:
                    00:cd:be:14:4f:fa:ce:01:3f:42:22:1b:1d:9c:af:
                    dd:92:d2:7f:db:6c:b7:3e:39:43:43:6b:13:03:f1:
                    05:f4:07:74:bc:76:69:28:0b:af:19:8e:d7:fc:e3:
                    cd:c6:58:f2:ca:7f:08:6d:53:fc:07:02:44:24:c6:
                    b4:34:4c:8c:04:fe:33:0e:40:e2:20:ba:02:73:5a:
                    f7:f5:4f:63:6e:cc:c6:b6:df:54:1d:37:39:7d:51:
                    36:26:5f:bd:dc:3f:a8:8b:6b:a2:ae:b6:9d:d6:21:
                    e7:df:41:b8:7a:28:2a:68:48:ca:a8:2d:ed:e1:e9:
                    46:5e:5a:72:6d:b4:84:38:87:91:fd:94:11:0b:28:
                    84:c6:c2:2f:2a:fb:01:f9:36:7a:09:75:d1:33:88:
                    3c:73:41:5b:c8:bf:94:89:70:a1:f0:c0:b9:2e:50:
                    53:1e:b1:17:64:69:f4:2d:81:e0:a9:0d:0e:32:e9:
                    ba:55:8a:85:f1:1b:6f:49:79:b4:7f:88:c3:0d:3e:
                    54:88:9b:3d:1f:38:8c:04:f3:ee:6a:63:2b:f5:c6:
                    db:b4:83:aa:c4:78:41:3a:7d:4b:e1:c8:3e:71:ca:
                    1b:61:59:ea:c6:c4:ca:32:5e:c9:e9:bf:12:29:e6:
                    c6:c3:63:fe:a0:55:da:7a:f1:60:98:4d:26:ed:fa:
                    70:2d
                Exponent: 65537 (0x10001)
        X509v3 extensions:
            X509v3 Key Usage: 
                Digital Signature, Key Encipherment
            X509v3 Basic Constraints: 
                CA:FALSE
            Netscape Cert Type: 
                SSL Server
            Netscape Comment: 
                OpenSSL Generated Server Certificate
            X509v3 Subject Key Identifier: 
                53:3F:ED:5D:09:07:B3:65:7B:AB:45:C9:24:5B:09:77:80:0A:96:ED
            X509v3 Authority Key Identifier: 
                keyid:F4:A7:C0:CC:91:46:AF:64:F3:91:F2:27:F8:C8:B2:6F:8A:87:32:73
                DirName:/C=DE/ST=Hessen/O=privacyidea/CN=CA001
                serial:FB:C8:EB:AC:83:CD:12:07

            X509v3 Extended Key Usage: 
                TLS Web Server Authentication
    Signature Algorithm: sha256WithRSAEncryption
         45:32:7f:a4:4d:af:8f:a8:a4:c8:91:2e:85:a8:49:f6:8d:98:
         cc:3e:5e:5d:8b:74:4b:7d:e4:6d:a0:bd:5e:f9:ea:99:46:b4:
         80:27:82:04:a9:58:e0:85:21:34:60:3c:8b:ea:1c:9a:b5:53:
         63:8e:ef:87:2e:26:83:94:b0:b2:8d:32:45:4d:3e:47:b8:d8:
         27:ea:66:0c:fe:45:1a:c6:b7:36:cb:32:c3:47:03:4c:5f:f0:
         e0:33:9c:5f:80:c4:aa:fa:89:b6:1e:72:d1:82:a9:ce:d7:65:
         ae:7d:f4:32:75:ec:f1:31:cf:f0:5d:e1:f8:de:20:35:a1:fd:
         7b:17:33:36:7d:ba:68:5f:d5:90:a3:ff:d5:d1:1a:70:76:52:
         db:56:5c:05:c8:a7:cf:03:9a:1c:df:ec:4c:13:12:58:54:d5:
         e1:45:ce:d2:db:20:2a:61:c4:01:0c:44:74:68:ee:a0:ed:bf:
         15:97:b9:25:a5:9a:a5:3f:f9:45:76:a4:fb:88:e5:75:af:26:
         fe:4f:e8:4a:f8:d5:ec:93:5d:f3:0f:60:46:d3:60:3d:22:cd:
         ab:f0:e3:df:0b:cb:ad:9b:d0:8d:98:05:92:dc:85:51:5b:32:
         02:60:56:29:25:62:bc:ae:1c:16:24:7b:72:d7:66:3a:6b:a4:
         83:51:f5:08
-----BEGIN CERTIFICATE-----
MIIEJjCCAw6gAwIBAgIEEAAA1TANBgkqhkiG9w0BAQsFADBEMQswCQYDVQQGEwJE
RTEPMA0GA1UECAwGSGVzc2VuMRQwEgYDVQQKDAtwcml2YWN5aWRlYTEOMAwGA1UE
AwwFQ0EwMDEwHhcNMTgwODE2MTQxODU1WhcNMTkwODE2MTQxODU1WjBUMQswCQYD
VQQGEwJERTEPMA0GA1UECAwGSGVzc2VuMRQwEgYDVQQKDAtwcml2YWN5aWRlYTEe
MBwGA1UEAwwVcmVxdWVzdGVyLmxvY2FsZG9tYWluMIIBIjANBgkqhkiG9w0BAQEF
AAOCAQ8AMIIBCgKCAQEAzb4UT/rOAT9CIhsdnK/dktJ/22y3PjlDQ2sTA/EF9Ad0
vHZpKAuvGY7X/OPNxljyyn8IbVP8BwJEJMa0NEyMBP4zDkDiILoCc1r39U9jbszG
tt9UHTc5fVE2Jl+93D+oi2uirrad1iHn30G4eigqaEjKqC3t4elGXlpybbSEOIeR
/ZQRCyiExsIvKvsB+TZ6CXXRM4g8c0FbyL+UiXCh8MC5LlBTHrEXZGn0LYHgqQ0O
Mum6VYqF8RtvSXm0f4jDDT5UiJs9HziMBPPuamMr9cbbtIOqxHhBOn1L4cg+ccob
YVnqxsTKMl7J6b8SKebGw2P+oFXaevFgmE0m7fpwLQIDAQABo4IBDjCCAQowCwYD
VR0PBAQDAgWgMAkGA1UdEwQCMAAwEQYJYIZIAYb4QgEBBAQDAgZAMDMGCWCGSAGG
+EIBDQQmFiRPcGVuU1NMIEdlbmVyYXRlZCBTZXJ2ZXIgQ2VydGlmaWNhdGUwHQYD
VR0OBBYEFFM/7V0JB7Nle6tFySRbCXeACpbtMHQGA1UdIwRtMGuAFPSnwMyRRq9k
85HyJ/jIsm+KhzJzoUikRjBEMQswCQYDVQQGEwJERTEPMA0GA1UECAwGSGVzc2Vu
MRQwEgYDVQQKDAtwcml2YWN5aWRlYTEOMAwGA1UEAwwFQ0EwMDGCCQD7yOusg80S
BzATBgNVHSUEDDAKBggrBgEFBQcDATANBgkqhkiG9w0BAQsFAAOCAQEARTJ/pE2v
j6ikyJEuhahJ9o2YzD5eXYt0S33kbaC9XvnqmUa0gCeCBKlY4IUhNGA8i+ocmrVT
Y47vhy4mg5Swso0yRU0+R7jYJ+pmDP5FGsa3Nssyw0cDTF/w4DOcX4DEqvqJth5y
0YKpztdlrn30MnXs8THP8F3h+N4gNaH9exczNn26aF/VkKP/1dEacHZS21ZcBcin
zwOaHN/sTBMSWFTV4UXO0tsgKmHEAQxEdGjuoO2/FZe5JaWapT/5RXak+4jlda8m
/k/oSvjV7JNd8w9gRtNgPSLNq/Dj3wvLrZvQjZgFktyFUVsyAmBWKSVivK4cFiR7
ctdmOmukg1H1CA==
-----END CERTIFICATE-----
