Certificate:
    Data:
        Version: 3 (0x2)
        Serial Number: 268435677 (0x100000dd)
    Signature Algorithm: sha256WithRSAEncryption
        Issuer: C=DE, ST=Hessen, O=privacyidea, CN=CA001
        Validity
            Not Before: Jun 14 15:08:49 2018 GMT
            Not After : Jun 14 15:08:49 2019 GMT
        Subject: C=DE, ST=Hessen, O=privacyidea, CN=requester.localdomain
        Subject Public Key Info:
            Public Key Algorithm: rsaEncryption
                Public-Key: (2048 bit)
                Modulus:
                    00:cd:be:14:4f:fa:ce:01:3f:42:22:1b:1d:9c:af:
                    dd:92:d2:7f:db:6c:b7:3e:39:43:43:6b:13:03:f1:
                    05:f4:07:74:bc:76:69:28:0b:af:19:8e:d7:fc:e3:
                    cd:c6:58:f2:ca:7f:08:6d:53:fc:07:02:44:24:c6:
                    b4:34:4c:8c:04:fe:33:0e:40:e2:20:ba:02:73:5a:
                    f7:f5:4f:63:6e:cc:c6:b6:df:54:1d:37:39:7d:51:
                    36:26:5f:bd:dc:3f:a8:8b:6b:a2:ae:b6:9d:d6:21:
                    e7:df:41:b8:7a:28:2a:68:48:ca:a8:2d:ed:e1:e9:
                    46:5e:5a:72:6d:b4:84:38:87:91:fd:94:11:0b:28:
                    84:c6:c2:2f:2a:fb:01:f9:36:7a:09:75:d1:33:88:
                    3c:73:41:5b:c8:bf:94:89:70:a1:f0:c0:b9:2e:50:
                    53:1e:b1:17:64:69:f4:2d:81:e0:a9:0d:0e:32:e9:
                    ba:55:8a:85:f1:1b:6f:49:79:b4:7f:88:c3:0d:3e:
                    54:88:9b:3d:1f:38:8c:04:f3:ee:6a:63:2b:f5:c6:
                    db:b4:83:aa:c4:78:41:3a:7d:4b:e1:c8:3e:71:ca:
                    1b:61:59:ea:c6:c4:ca:32:5e:c9:e9:bf:12:29:e6:
                    c6:c3:63:fe:a0:55:da:7a:f1:60:98:4d:26:ed:fa:
                    70:2d
                Exponent: 65537 (0x10001)
        X509v3 extensions:
            X509v3 Key Usage: 
                Digital Signature, Key Encipherment
            X509v3 Basic Constraints: 
                CA:FALSE
            Netscape Cert Type: 
                SSL Server
            Netscape Comment: 
                OpenSSL Generated Server Certificate
            X509v3 Subject Key Identifier: 
                53:3F:ED:5D:09:07:B3:65:7B:AB:45:C9:24:5B:09:77:80:0A:96:ED
            X509v3 Authority Key Identifier: 
                keyid:F4:A7:C0:CC:91:46:AF:64:F3:91:F2:27:F8:C8:B2:6F:8A:87:32:73
                DirName:/C=DE/ST=Hessen/O=privacyidea/CN=CA001
                serial:FB:C8:EB:AC:83:CD:12:07

            X509v3 Extended Key Usage: 
                TLS Web Server Authentication
    Signature Algorithm: sha256WithRSAEncryption
         01:b5:f2:21:75:6a:ec:27:76:f7:9f:42:20:91:ad:9c:66:00:
         9c:0e:45:32:b4:71:be:75:af:42:ba:53:22:cc:59:91:83:df:
         55:6a:1a:65:2a:c8:8b:12:2c:a6:03:57:bf:cc:7f:98:99:49:
         70:32:bc:c7:c7:5b:82:90:07:16:d3:7f:b0:af:fa:4e:2d:5d:
         a9:67:4c:e6:f6:84:85:f4:4c:79:a5:98:8c:c5:3c:df:1f:14:
         c8:45:90:86:7e:a2:cc:18:a5:e3:bc:3b:1c:48:b7:41:16:55:
         aa:8d:a4:e9:32:e6:49:f6:b9:a9:c0:80:2c:a2:51:2b:29:a6:
         72:ed:ff:f5:95:96:99:d3:dd:b3:f9:89:a9:b1:11:ea:e8:a7:
         b4:da:75:ba:63:1a:cd:66:dc:23:25:cd:02:0f:7d:9c:d3:fd:
         0a:bb:38:be:dd:1b:85:2e:39:62:17:8d:56:3c:21:bc:bd:11:
         4a:a3:63:a2:b8:33:b3:90:a5:9f:70:66:f9:eb:a0:76:42:6a:
         f7:8c:88:20:92:c3:b2:60:07:b1:ed:d9:56:c0:6c:8b:e2:5e:
         7d:1a:1f:ec:fe:ee:47:83:46:71:bd:8c:e6:31:f7:c4:60:43:
         16:69:6e:3a:9b:75:fa:c4:f0:7e:c3:8c:9d:1c:6e:b8:45:01:
         86:e5:91:4d
-----BEGIN CERTIFICATE-----
MIIEJjCCAw6gAwIBAgIEEAAA3TANBgkqhkiG9w0BAQsFADBEMQswCQYDVQQGEwJE
RTEPMA0GA1UECAwGSGVzc2VuMRQwEgYDVQQKDAtwcml2YWN5aWRlYTEOMAwGA1UE
AwwFQ0EwMDEwHhcNMTgwNjE0MTUwODQ5WhcNMTkwNjE0MTUwODQ5WjBUMQswCQYD
VQQGEwJERTEPMA0GA1UECAwGSGVzc2VuMRQwEgYDVQQKDAtwcml2YWN5aWRlYTEe
MBwGA1UEAwwVcmVxdWVzdGVyLmxvY2FsZG9tYWluMIIBIjANBgkqhkiG9w0BAQEF
AAOCAQ8AMIIBCgKCAQEAzb4UT/rOAT9CIhsdnK/dktJ/22y3PjlDQ2sTA/EF9Ad0
vHZpKAuvGY7X/OPNxljyyn8IbVP8BwJEJMa0NEyMBP4zDkDiILoCc1r39U9jbszG
tt9UHTc5fVE2Jl+93D+oi2uirrad1iHn30G4eigqaEjKqC3t4elGXlpybbSEOIeR
/ZQRCyiExsIvKvsB+TZ6CXXRM4g8c0FbyL+UiXCh8MC5LlBTHrEXZGn0LYHgqQ0O
Mum6VYqF8RtvSXm0f4jDDT5UiJs9HziMBPPuamMr9cbbtIOqxHhBOn1L4cg+ccob
YVnqxsTKMl7J6b8SKebGw2P+oFXaevFgmE0m7fpwLQIDAQABo4IBDjCCAQowCwYD
VR0PBAQDAgWgMAkGA1UdEwQCMAAwEQYJYIZIAYb4QgEBBAQDAgZAMDMGCWCGSAGG
+EIBDQQmFiRPcGVuU1NMIEdlbmVyYXRlZCBTZXJ2ZXIgQ2VydGlmaWNhdGUwHQYD
VR0OBBYEFFM/7V0JB7Nle6tFySRbCXeACpbtMHQGA1UdIwRtMGuAFPSnwMyRRq9k
85HyJ/jIsm+KhzJzoUikRjBEMQswCQYDVQQGEwJERTEPMA0GA1UECAwGSGVzc2Vu
MRQwEgYDVQQKDAtwcml2YWN5aWRlYTEOMAwGA1UEAwwFQ0EwMDGCCQD7yOusg80S
BzATBgNVHSUEDDAKBggrBgEFBQcDATANBgkqhkiG9w0BAQsFAAOCAQEAAbXyIXVq
7Cd2959CIJGtnGYAnA5FMrRxvnWvQrpTIsxZkYPfVWoaZSrIixIspgNXv8x/mJlJ
cDK8x8dbgpAHFtN/sK/6Ti1dqWdM5vaEhfRMeaWYjMU83x8UyEWQhn6izBil47w7
HEi3QRZVqo2k6TLmSfa5qcCALKJRKymmcu3/9ZWWmdPds/mJqbER6uintNp1umMa
zWbcIyXNAg99nNP9Crs4vt0bhS45YheNVjwhvL0RSqNjorgzs5Cln3Bm+eugdkJq
94yIIJLDsmAHse3ZVsBsi+JefRof7P7uR4NGcb2M5jH3xGBDFmluOpt1+sTwfsOM
nRxuuEUBhuWRTQ==
-----END CERTIFICATE-----
