Certificate:
    Data:
        Version: 3 (0x2)
        Serial Number: 268435670 (0x100000d6)
    Signature Algorithm: sha256WithRSAEncryption
        Issuer: C=DE, ST=Hessen, O=privacyidea, CN=CA001
        Validity
            Not Before: Sep  5 11:14:21 2018 GMT
            Not After : Sep  5 11:14:21 2019 GMT
        Subject: OU=realm1, CN=cornelius/emailAddress=user@localhost.localdomain
        Subject Public Key Info:
            Public Key Algorithm: rsaEncryption
                Public-Key: (2048 bit)
                Modulus:
                    00:bb:0a:c5:6b:cb:d2:10:2d:71:8b:5f:d5:85:b7:
                    12:94:d5:99:27:b2:c0:50:ea:7e:de:12:39:c6:7f:
                    1f:08:03:c2:af:f7:a2:06:6d:86:7b:dd:4e:63:42:
                    5a:dd:5d:29:6b:0f:fc:fc:9c:ed:9a:f0:02:ed:91:
                    4d:60:a3:8a:80:60:d0:38:43:8e:95:76:8b:19:5b:
                    bf:20:af:81:6d:1d:96:3c:b5:7d:8b:5a:f0:87:22:
                    df:21:a6:6e:e8:a4:2e:57:29:a0:a1:f8:18:fd:de:
                    83:e3:92:03:c9:b0:10:a6:06:b2:5a:b4:de:51:76:
                    83:6d:ac:03:3e:b4:b0:71:95:50:5c:e3:b3:64:c7:
                    77:43:dd:32:21:79:71:fe:3d:06:1d:de:89:05:2a:
                    16:16:0b:dd:85:91:86:cc:17:26:f1:61:4a:94:64:
                    54:c9:19:26:5a:a6:79:f6:d4:b3:58:aa:a6:64:78:
                    81:9d:f6:3e:98:53:24:d0:60:a1:74:25:7f:30:b4:
                    5a:8f:f1:22:53:49:cf:d5:1f:9b:ce:be:50:e4:c2:
                    bc:de:5c:74:89:21:01:bc:f9:80:b8:c1:0e:7a:78:
                    f1:d8:ad:b8:2e:03:3b:09:86:5b:2c:b4:84:26:6f:
                    87:ab:66:a8:08:d7:9a:59:a8:12:27:ca:f4:72:d3:
                    60:e9
                Exponent: 65537 (0x10001)
        X509v3 extensions:
            X509v3 Key Usage: 
                Digital Signature, Key Encipherment
            X509v3 Basic Constraints: 
                CA:FALSE
            Netscape Cert Type: 
                SSL Server
            Netscape Comment: 
                OpenSSL Generated Server Certificate
            X509v3 Subject Key Identifier: 
                EC:6E:9A:67:C3:0B:4B:CC:37:4A:A1:DC:41:D9:65:CD:BE:43:60:B7
            X509v3 Authority Key Identifier: 
                keyid:F4:A7:C0:CC:91:46:AF:64:F3:91:F2:27:F8:C8:B2:6F:8A:87:32:73
                DirName:/C=DE/ST=Hessen/O=privacyidea/CN=CA001
                serial:FB:C8:EB:AC:83:CD:12:07

            X509v3 Extended Key Usage: 
                TLS Web Server Authentication
    Signature Algorithm: sha256WithRSAEncryption
         89:ad:a5:22:d3:ce:79:c0:b3:be:5d:f3:af:48:f8:4e:02:da:
         3d:d6:60:6d:d2:59:e6:7d:d2:2d:50:67:04:d9:a2:b6:5a:62:
         d7:dd:2c:c9:e7:74:9f:49:36:18:8d:a4:a0:a6:7a:e9:9f:f3:
         1b:a8:ec:4a:4f:ea:5d:c9:5a:54:ce:33:bf:9f:88:42:da:a0:
         f9:33:1f:57:20:1c:91:d1:a0:0a:07:52:ec:f2:16:bc:d4:0d:
         2d:c5:79:55:5e:89:34:2f:61:ff:aa:f3:04:6e:2b:87:9a:0d:
         c6:df:81:23:70:39:87:be:74:26:ca:5d:33:8d:1d:b2:d0:6e:
         63:2f:9a:7c:59:8f:e3:b9:04:9d:9d:b1:39:63:06:92:4e:3a:
         41:9b:d6:b8:eb:1d:8d:d0:10:bf:a6:a3:b3:c8:ce:c7:e0:ce:
         11:69:0f:64:f1:c9:e5:83:22:b9:16:6a:32:8a:89:a4:c7:a3:
         63:f1:fe:24:41:b9:b0:12:8c:ab:cb:bd:96:af:3d:12:da:28:
         ee:50:ef:63:c7:32:7b:4f:0f:23:57:c9:17:6e:31:ca:2f:db:
         97:4a:7b:cb:77:84:eb:ae:82:da:a5:e7:2b:55:ee:1f:bd:bc:
         39:e9:67:fd:b8:33:98:39:1f:a6:de:b5:c8:c9:6e:17:d5:8b:
         c7:f0:db:b9
-----BEGIN CERTIFICATE-----
MIIEIjCCAwqgAwIBAgIEEAAA1jANBgkqhkiG9w0BAQsFADBEMQswCQYDVQQGEwJE
RTEPMA0GA1UECAwGSGVzc2VuMRQwEgYDVQQKDAtwcml2YWN5aWRlYTEOMAwGA1UE
AwwFQ0EwMDEwHhcNMTgwOTA1MTExNDIxWhcNMTkwOTA1MTExNDIxWjBQMQ8wDQYD
VQQLDAZyZWFsbTExEjAQBgNVBAMMCWNvcm5lbGl1czEpMCcGCSqGSIb3DQEJARYa
dXNlckBsb2NhbGhvc3QubG9jYWxkb21haW4wggEiMA0GCSqGSIb3DQEBAQUAA4IB
DwAwggEKAoIBAQC7CsVry9IQLXGLX9WFtxKU1ZknssBQ6n7eEjnGfx8IA8Kv96IG
bYZ73U5jQlrdXSlrD/z8nO2a8ALtkU1go4qAYNA4Q46VdosZW78gr4FtHZY8tX2L
WvCHIt8hpm7opC5XKaCh+Bj93oPjkgPJsBCmBrJatN5RdoNtrAM+tLBxlVBc47Nk
x3dD3TIheXH+PQYd3okFKhYWC92FkYbMFybxYUqUZFTJGSZapnn21LNYqqZkeIGd
9j6YUyTQYKF0JX8wtFqP8SJTSc/VH5vOvlDkwrzeXHSJIQG8+YC4wQ56ePHYrbgu
AzsJhlsstIQmb4erZqgI15pZqBInyvRy02DpAgMBAAGjggEOMIIBCjALBgNVHQ8E
BAMCBaAwCQYDVR0TBAIwADARBglghkgBhvhCAQEEBAMCBkAwMwYJYIZIAYb4QgEN
BCYWJE9wZW5TU0wgR2VuZXJhdGVkIFNlcnZlciBDZXJ0aWZpY2F0ZTAdBgNVHQ4E
FgQU7G6aZ8MLS8w3SqHcQdllzb5DYLcwdAYDVR0jBG0wa4AU9KfAzJFGr2TzkfIn
+Miyb4qHMnOhSKRGMEQxCzAJBgNVBAYTAkRFMQ8wDQYDVQQIDAZIZXNzZW4xFDAS
BgNVBAoMC3ByaXZhY3lpZGVhMQ4wDAYDVQQDDAVDQTAwMYIJAPvI66yDzRIHMBMG
A1UdJQQMMAoGCCsGAQUFBwMBMA0GCSqGSIb3DQEBCwUAA4IBAQCJraUi0855wLO+
XfOvSPhOAto91mBt0lnmfdItUGcE2aK2WmLX3SzJ53SfSTYYjaSgpnrpn/MbqOxK
T+pdyVpUzjO/n4hC2qD5Mx9XIByR0aAKB1Ls8ha81A0txXlVXok0L2H/qvMEbiuH
mg3G34EjcDmHvnQmyl0zjR2y0G5jL5p8WY/juQSdnbE5YwaSTjpBm9a46x2N0BC/
pqOzyM7H4M4RaQ9k8cnlgyK5Fmoyiomkx6Nj8f4kQbmwEoyry72Wrz0S2ijuUO9j
xzJ7Tw8jV8kXbjHKL9uXSnvLd4TrroLapecrVe4fvbw56Wf9uDOYOR+m3rXIyW4X
1YvH8Nu5
-----END CERTIFICATE-----
