Certificate:
    Data:
        Version: 3 (0x2)
        Serial Number: 268435664 (0x100000d0)
    Signature Algorithm: sha256WithRSAEncryption
        Issuer: C=DE, ST=Hessen, O=privacyidea, CN=CA001
        Validity
            Not Before: Sep  5 11:07:38 2018 GMT
            Not After : Sep  5 11:07:38 2019 GMT
        Subject: C=DE, ST=Hessen, O=privacyidea, CN=requester.localdomain
        Subject Public Key Info:
            Public Key Algorithm: rsaEncryption
                Public-Key: (2048 bit)
                Modulus:
                    00:cd:be:14:4f:fa:ce:01:3f:42:22:1b:1d:9c:af:
                    dd:92:d2:7f:db:6c:b7:3e:39:43:43:6b:13:03:f1:
                    05:f4:07:74:bc:76:69:28:0b:af:19:8e:d7:fc:e3:
                    cd:c6:58:f2:ca:7f:08:6d:53:fc:07:02:44:24:c6:
                    b4:34:4c:8c:04:fe:33:0e:40:e2:20:ba:02:73:5a:
                    f7:f5:4f:63:6e:cc:c6:b6:df:54:1d:37:39:7d:51:
                    36:26:5f:bd:dc:3f:a8:8b:6b:a2:ae:b6:9d:d6:21:
                    e7:df:41:b8:7a:28:2a:68:48:ca:a8:2d:ed:e1:e9:
                    46:5e:5a:72:6d:b4:84:38:87:91:fd:94:11:0b:28:
                    84:c6:c2:2f:2a:fb:01:f9:36:7a:09:75:d1:33:88:
                    3c:73:41:5b:c8:bf:94:89:70:a1:f0:c0:b9:2e:50:
                    53:1e:b1:17:64:69:f4:2d:81:e0:a9:0d:0e:32:e9:
                    ba:55:8a:85:f1:1b:6f:49:79:b4:7f:88:c3:0d:3e:
                    54:88:9b:3d:1f:38:8c:04:f3:ee:6a:63:2b:f5:c6:
                    db:b4:83:aa:c4:78:41:3a:7d:4b:e1:c8:3e:71:ca:
                    1b:61:59:ea:c6:c4:ca:32:5e:c9:e9:bf:12:29:e6:
                    c6:c3:63:fe:a0:55:da:7a:f1:60:98:4d:26:ed:fa:
                    70:2d
                Exponent: 65537 (0x10001)
        X509v3 extensions:
            X509v3 Key Usage: 
                Digital Signature, Key Encipherment
            X509v3 Basic Constraints: 
                CA:FALSE
            Netscape Cert Type: 
                SSL Server
            Netscape Comment: 
                OpenSSL Generated Server Certificate
            X509v3 Subject Key Identifier: 
                53:3F:ED:5D:09:07:B3:65:7B:AB:45:C9:24:5B:09:77:80:0A:96:ED
            X509v3 Authority Key Identifier: 
                keyid:F4:A7:C0:CC:91:46:AF:64:F3:91:F2:27:F8:C8:B2:6F:8A:87:32:73
                DirName:/C=DE/ST=Hessen/O=privacyidea/CN=CA001
                serial:FB:C8:EB:AC:83:CD:12:07

            X509v3 Extended Key Usage: 
                TLS Web Server Authentication
    Signature Algorithm: sha256WithRSAEncryption
         38:35:55:f0:be:ec:9b:35:46:ab:eb:5f:ff:03:fa:d9:2d:f9:
         67:9e:9b:8a:06:a5:72:46:01:8f:94:bb:ea:f6:5b:6b:a0:97:
         b3:dc:d1:a8:dd:46:b1:59:e5:54:ac:b9:98:81:6f:52:22:c9:
         57:2a:85:aa:de:c3:90:72:1a:d1:cf:a1:5d:66:22:f9:b8:fe:
         da:c0:1f:94:50:3a:d9:44:92:e5:31:6a:b2:48:6e:48:32:63:
         b9:4b:92:32:c2:fd:fc:bc:00:25:21:83:60:14:32:fc:19:ae:
         a3:36:57:78:7e:2f:99:31:ba:b9:41:70:80:81:be:f3:0d:f8:
         c2:ed:c3:56:41:a6:a8:5d:44:d7:07:93:f3:68:8e:29:d3:00:
         2d:7b:e6:03:e1:db:8c:23:27:9d:b6:d8:54:e8:39:a2:22:2b:
         13:73:29:4a:79:1d:f0:3f:49:de:6d:d8:2f:fd:08:d8:d3:b0:
         76:9b:6e:46:44:16:c7:ed:90:4b:a0:11:f5:15:1e:c4:09:a0:
         b8:fe:14:30:f8:57:46:f0:dd:70:09:ca:ef:4d:98:8b:0c:79:
         e8:9e:d9:28:74:d0:0b:aa:be:da:95:e0:59:3a:f9:d4:b6:3c:
         72:7a:35:58:0b:c3:4e:02:0c:f4:89:23:64:c3:b3:f7:01:e1:
         99:d8:ab:89
-----BEGIN CERTIFICATE-----
MIIEJjCCAw6gAwIBAgIEEAAA0DANBgkqhkiG9w0BAQsFADBEMQswCQYDVQQGEwJE
RTEPMA0GA1UECAwGSGVzc2VuMRQwEgYDVQQKDAtwcml2YWN5aWRlYTEOMAwGA1UE
AwwFQ0EwMDEwHhcNMTgwOTA1MTEwNzM4WhcNMTkwOTA1MTEwNzM4WjBUMQswCQYD
VQQGEwJERTEPMA0GA1UECAwGSGVzc2VuMRQwEgYDVQQKDAtwcml2YWN5aWRlYTEe
MBwGA1UEAwwVcmVxdWVzdGVyLmxvY2FsZG9tYWluMIIBIjANBgkqhkiG9w0BAQEF
AAOCAQ8AMIIBCgKCAQEAzb4UT/rOAT9CIhsdnK/dktJ/22y3PjlDQ2sTA/EF9Ad0
vHZpKAuvGY7X/OPNxljyyn8IbVP8BwJEJMa0NEyMBP4zDkDiILoCc1r39U9jbszG
tt9UHTc5fVE2Jl+93D+oi2uirrad1iHn30G4eigqaEjKqC3t4elGXlpybbSEOIeR
/ZQRCyiExsIvKvsB+TZ6CXXRM4g8c0FbyL+UiXCh8MC5LlBTHrEXZGn0LYHgqQ0O
Mum6VYqF8RtvSXm0f4jDDT5UiJs9HziMBPPuamMr9cbbtIOqxHhBOn1L4cg+ccob
YVnqxsTKMl7J6b8SKebGw2P+oFXaevFgmE0m7fpwLQIDAQABo4IBDjCCAQowCwYD
VR0PBAQDAgWgMAkGA1UdEwQCMAAwEQYJYIZIAYb4QgEBBAQDAgZAMDMGCWCGSAGG
+EIBDQQmFiRPcGVuU1NMIEdlbmVyYXRlZCBTZXJ2ZXIgQ2VydGlmaWNhdGUwHQYD
VR0OBBYEFFM/7V0JB7Nle6tFySRbCXeACpbtMHQGA1UdIwRtMGuAFPSnwMyRRq9k
85HyJ/jIsm+KhzJzoUikRjBEMQswCQYDVQQGEwJERTEPMA0GA1UECAwGSGVzc2Vu
MRQwEgYDVQQKDAtwcml2YWN5aWRlYTEOMAwGA1UEAwwFQ0EwMDGCCQD7yOusg80S
BzATBgNVHSUEDDAKBggrBgEFBQcDATANBgkqhkiG9w0BAQsFAAOCAQEAODVV8L7s
mzVGq+tf/wP62S35Z56bigalckYBj5S76vZba6CXs9zRqN1GsVnlVKy5mIFvUiLJ
VyqFqt7DkHIa0c+hXWYi+bj+2sAflFA62USS5TFqskhuSDJjuUuSMsL9/LwAJSGD
YBQy/BmuozZXeH4vmTG6uUFwgIG+8w34wu3DVkGmqF1E1weT82iOKdMALXvmA+Hb
jCMnnbbYVOg5oiIrE3MpSnkd8D9J3m3YL/0I2NOwdptuRkQWx+2QS6AR9RUexAmg
uP4UMPhXRvDdcAnK702Yiwx56J7ZKHTQC6q+2pXgWTr51LY8cno1WAvDTgIM9Ikj
ZMOz9wHhmdiriQ==
-----END CERTIFICATE-----
