Certificate:
    Data:
        Version: 3 (0x2)
        Serial Number: 268435667 (0x100000d3)
    Signature Algorithm: sha256WithRSAEncryption
        Issuer: C=DE, ST=Hessen, O=privacyidea, CN=CA001
        Validity
            Not Before: Sep  5 11:09:50 2018 GMT
            Not After : Sep  5 11:09:50 2019 GMT
        Subject: CN=Steve Test/emailAddress=steve@openssl.org
        Subject Public Key Info:
            Public Key Algorithm: rsaEncryption
                Public-Key: (2048 bit)
                Modulus:
                    00:d2:81:89:20:51:48:0f:73:f4:11:32:24:d5:1f:
                    1c:fd:5c:f5:b6:e6:c5:f0:52:81:dc:d2:af:66:4a:
                    7c:93:31:61:5c:af:d1:6d:06:70:03:60:7c:72:0c:
                    88:dd:49:cd:9e:02:6c:d2:5a:d7:53:0f:f3:da:be:
                    69:64:b5:0f:0c:00:e3:b3:50:47:a3:b3:9b:ba:13:
                    50:d6:58:5a:4b:ab:39:e0:11:ca:0a:27:67:03:78:
                    22:66:6d:92:1e:1b:5c:49:ae:e6:6b:d1:8e:3b:9d:
                    06:d3:c6:ac:4d:53:43:10:ab:e8:96:c1:87:82:97:
                    99:8f:20:d3:99:12:37:31:84:e1:8a:ff:29:03:5f:
                    22:90:3e:7f:9b:e0:20:c1:ad:dc:ae:4c:39:1a:31:
                    96:17:02:8c:b2:d9:b4:0d:20:12:9b:7d:86:54:fd:
                    33:fd:c1:2a:62:46:f8:60:96:cf:6e:01:6f:22:df:
                    13:47:e7:97:ec:05:72:23:a3:62:f8:fa:ef:ac:9c:
                    72:f0:37:cb:2f:37:cf:90:a8:27:51:86:c6:d7:78:
                    08:8f:7e:25:a2:15:70:a2:fb:1c:b6:15:5e:a0:97:
                    8b:81:4c:09:28:8a:27:3b:94:bc:71:db:5b:71:37:
                    9a:2b:16:e0:6f:b5:c9:f5:4b:4f:20:ba:65:cf:af:
                    ad:ad
                Exponent: 65537 (0x10001)
        X509v3 extensions:
            X509v3 Key Usage: 
                Digital Signature, Key Encipherment
            X509v3 Basic Constraints: 
                CA:FALSE
            Netscape Cert Type: 
                SSL Server
            Netscape Comment: 
                OpenSSL Generated Server Certificate
            X509v3 Subject Key Identifier: 
                E5:25:6D:3E:AF:0D:DD:3F:4C:F2:45:19:39:D5:14:DB:7E:9C:C0:AD
            X509v3 Authority Key Identifier: 
                keyid:F4:A7:C0:CC:91:46:AF:64:F3:91:F2:27:F8:C8:B2:6F:8A:87:32:73
                DirName:/C=DE/ST=Hessen/O=privacyidea/CN=CA001
                serial:FB:C8:EB:AC:83:CD:12:07

            X509v3 Extended Key Usage: 
                TLS Web Server Authentication
    Signature Algorithm: sha256WithRSAEncryption
         2f:28:14:50:50:81:64:99:d2:a4:d4:2b:76:38:1a:0f:4c:e9:
         fa:1d:d2:e1:76:6c:98:f7:f3:55:98:b3:ae:30:fd:d3:1c:62:
         28:36:1e:40:56:9c:81:61:7b:49:95:6b:01:6d:0b:6c:e0:5b:
         8f:26:1e:99:76:76:d9:6a:e6:3e:7f:b6:d0:8f:3e:61:f6:f5:
         4e:58:0f:5b:55:59:3a:39:cf:05:30:1f:8f:1d:18:78:2a:ca:
         2a:fa:51:01:08:8f:76:cd:d7:59:3f:a6:c4:50:bb:d7:ca:48:
         e2:29:a9:b2:82:d5:91:38:d6:75:1c:9d:61:89:a4:4c:5b:be:
         df:a8:5c:31:a3:69:a3:ce:0b:b1:66:a4:05:9d:cc:0a:b7:6c:
         63:c7:55:84:f2:73:21:ea:2b:ca:79:3f:b9:21:72:2f:5d:94:
         a6:5d:84:78:09:33:69:a8:aa:14:3d:98:82:21:cc:13:36:ed:
         a6:59:d8:68:65:55:67:a9:11:ae:b1:7d:d6:c8:20:d3:e5:f8:
         2a:a9:42:03:d5:1f:60:1b:9e:6e:d2:7a:e1:e5:1b:54:a2:a1:
         40:90:42:b3:c7:76:d2:b1:10:6d:cb:9f:99:25:9f:e6:46:0e:
         b9:48:06:3d:9c:70:1b:d0:d1:8c:72:fc:96:4a:59:eb:ac:36:
         d7:ff:86:55
-----BEGIN CERTIFICATE-----
MIIECTCCAvGgAwIBAgIEEAAA0zANBgkqhkiG9w0BAQsFADBEMQswCQYDVQQGEwJE
RTEPMA0GA1UECAwGSGVzc2VuMRQwEgYDVQQKDAtwcml2YWN5aWRlYTEOMAwGA1UE
AwwFQ0EwMDEwHhcNMTgwOTA1MTEwOTUwWhcNMTkwOTA1MTEwOTUwWjA3MRMwEQYD
VQQDDApTdGV2ZSBUZXN0MSAwHgYJKoZIhvcNAQkBFhFzdGV2ZUBvcGVuc3NsLm9y
ZzCCASIwDQYJKoZIhvcNAQEBBQADggEPADCCAQoCggEBANKBiSBRSA9z9BEyJNUf
HP1c9bbmxfBSgdzSr2ZKfJMxYVyv0W0GcANgfHIMiN1JzZ4CbNJa11MP89q+aWS1
DwwA47NQR6Ozm7oTUNZYWkurOeARygonZwN4ImZtkh4bXEmu5mvRjjudBtPGrE1T
QxCr6JbBh4KXmY8g05kSNzGE4Yr/KQNfIpA+f5vgIMGt3K5MORoxlhcCjLLZtA0g
Ept9hlT9M/3BKmJG+GCWz24BbyLfE0fnl+wFciOjYvj676yccvA3yy83z5CoJ1GG
xtd4CI9+JaIVcKL7HLYVXqCXi4FMCSiKJzuUvHHbW3E3misW4G+1yfVLTyC6Zc+v
ra0CAwEAAaOCAQ4wggEKMAsGA1UdDwQEAwIFoDAJBgNVHRMEAjAAMBEGCWCGSAGG
+EIBAQQEAwIGQDAzBglghkgBhvhCAQ0EJhYkT3BlblNTTCBHZW5lcmF0ZWQgU2Vy
dmVyIENlcnRpZmljYXRlMB0GA1UdDgQWBBTlJW0+rw3dP0zyRRk51RTbfpzArTB0
BgNVHSMEbTBrgBT0p8DMkUavZPOR8if4yLJviocyc6FIpEYwRDELMAkGA1UEBhMC
REUxDzANBgNVBAgMBkhlc3NlbjEUMBIGA1UECgwLcHJpdmFjeWlkZWExDjAMBgNV
BAMMBUNBMDAxggkA+8jrrIPNEgcwEwYDVR0lBAwwCgYIKwYBBQUHAwEwDQYJKoZI
hvcNAQELBQADggEBAC8oFFBQgWSZ0qTUK3Y4Gg9M6fod0uF2bJj381WYs64w/dMc
Yig2HkBWnIFhe0mVawFtC2zgW48mHpl2dtlq5j5/ttCPPmH29U5YD1tVWTo5zwUw
H48dGHgqyir6UQEIj3bN11k/psRQu9fKSOIpqbKC1ZE41nUcnWGJpExbvt+oXDGj
aaPOC7FmpAWdzAq3bGPHVYTycyHqK8p5P7khci9dlKZdhHgJM2moqhQ9mIIhzBM2
7aZZ2GhlVWepEa6xfdbIINPl+CqpQgPVH2Abnm7SeuHlG1SioUCQQrPHdtKxEG3L
n5kln+ZGDrlIBj2ccBvQ0Yxy/JZKWeusNtf/hlU=
-----END CERTIFICATE-----
