Certificate:
    Data:
        Version: 3 (0x2)
        Serial Number: 268435668 (0x100000d4)
    Signature Algorithm: sha256WithRSAEncryption
        Issuer: C=DE, ST=Hessen, O=privacyidea, CN=CA001
        Validity
            Not Before: Sep  5 11:09:50 2018 GMT
            Not After : Sep 24 11:09:50 2020 GMT
        Subject: CN=Steve Test/emailAddress=steve@openssl.org
        Subject Public Key Info:
            Public Key Algorithm: rsaEncryption
                Public-Key: (2048 bit)
                Modulus:
                    00:d2:81:89:20:51:48:0f:73:f4:11:32:24:d5:1f:
                    1c:fd:5c:f5:b6:e6:c5:f0:52:81:dc:d2:af:66:4a:
                    7c:93:31:61:5c:af:d1:6d:06:70:03:60:7c:72:0c:
                    88:dd:49:cd:9e:02:6c:d2:5a:d7:53:0f:f3:da:be:
                    69:64:b5:0f:0c:00:e3:b3:50:47:a3:b3:9b:ba:13:
                    50:d6:58:5a:4b:ab:39:e0:11:ca:0a:27:67:03:78:
                    22:66:6d:92:1e:1b:5c:49:ae:e6:6b:d1:8e:3b:9d:
                    06:d3:c6:ac:4d:53:43:10:ab:e8:96:c1:87:82:97:
                    99:8f:20:d3:99:12:37:31:84:e1:8a:ff:29:03:5f:
                    22:90:3e:7f:9b:e0:20:c1:ad:dc:ae:4c:39:1a:31:
                    96:17:02:8c:b2:d9:b4:0d:20:12:9b:7d:86:54:fd:
                    33:fd:c1:2a:62:46:f8:60:96:cf:6e:01:6f:22:df:
                    13:47:e7:97:ec:05:72:23:a3:62:f8:fa:ef:ac:9c:
                    72:f0:37:cb:2f:37:cf:90:a8:27:51:86:c6:d7:78:
                    08:8f:7e:25:a2:15:70:a2:fb:1c:b6:15:5e:a0:97:
                    8b:81:4c:09:28:8a:27:3b:94:bc:71:db:5b:71:37:
                    9a:2b:16:e0:6f:b5:c9:f5:4b:4f:20:ba:65:cf:af:
                    ad:ad
                Exponent: 65537 (0x10001)
        X509v3 extensions:
            X509v3 Key Usage: 
                Digital Signature, Key Encipherment
            X509v3 Basic Constraints: 
                CA:FALSE
            Netscape Cert Type: 
                SSL Server
            Netscape Comment: 
                OpenSSL Generated Server Certificate
            X509v3 Subject Key Identifier: 
                E5:25:6D:3E:AF:0D:DD:3F:4C:F2:45:19:39:D5:14:DB:7E:9C:C0:AD
            X509v3 Authority Key Identifier: 
                keyid:F4:A7:C0:CC:91:46:AF:64:F3:91:F2:27:F8:C8:B2:6F:8A:87:32:73
                DirName:/C=DE/ST=Hessen/O=privacyidea/CN=CA001
                serial:FB:C8:EB:AC:83:CD:12:07

            X509v3 Extended Key Usage: 
                TLS Web Server Authentication
    Signature Algorithm: sha256WithRSAEncryption
         8e:10:3f:08:1e:37:6d:6d:7e:58:54:df:6f:a2:47:92:e7:c8:
         df:35:91:de:d5:5d:ab:9e:2d:23:ef:b4:3e:0c:14:a4:7e:eb:
         de:48:29:8b:da:30:41:e2:9b:fb:d5:eb:39:f2:bf:68:b7:ea:
         e1:63:36:4b:03:53:b1:95:8b:cb:64:2a:ff:96:c3:b1:e0:04:
         77:3c:ef:9f:3f:75:4b:0d:c8:fb:68:08:2e:d7:a3:96:81:7f:
         c4:9d:84:eb:ee:23:33:c6:a6:10:b1:e8:16:b2:12:2e:23:0c:
         5a:4c:64:71:4a:96:4d:d5:4d:79:be:3d:ba:85:58:60:b2:b1:
         0a:61:e5:75:35:54:e3:a8:98:a8:d0:8e:89:ec:6b:3c:e2:15:
         48:b5:81:08:51:e4:fd:d3:54:6e:56:ea:ad:5e:67:32:54:72:
         39:9c:70:96:80:70:4b:fa:29:8c:39:02:fe:f3:44:d2:04:f1:
         82:de:be:bc:12:14:b5:6d:00:8c:08:a0:35:82:2a:96:e4:2d:
         cf:a6:23:f1:3a:d0:8d:49:19:2c:b3:01:7f:b9:7b:66:af:97:
         3c:a6:e1:a9:6a:d4:d0:bc:40:b4:9c:de:95:92:59:8d:9e:8d:
         53:e5:67:60:71:5f:09:6a:cc:90:00:e3:ce:2a:22:a4:0b:0c:
         0c:1c:8a:a4
-----BEGIN CERTIFICATE-----
MIIECTCCAvGgAwIBAgIEEAAA1DANBgkqhkiG9w0BAQsFADBEMQswCQYDVQQGEwJE
RTEPMA0GA1UECAwGSGVzc2VuMRQwEgYDVQQKDAtwcml2YWN5aWRlYTEOMAwGA1UE
AwwFQ0EwMDEwHhcNMTgwOTA1MTEwOTUwWhcNMjAwOTI0MTEwOTUwWjA3MRMwEQYD
VQQDDApTdGV2ZSBUZXN0MSAwHgYJKoZIhvcNAQkBFhFzdGV2ZUBvcGVuc3NsLm9y
ZzCCASIwDQYJKoZIhvcNAQEBBQADggEPADCCAQoCggEBANKBiSBRSA9z9BEyJNUf
HP1c9bbmxfBSgdzSr2ZKfJMxYVyv0W0GcANgfHIMiN1JzZ4CbNJa11MP89q+aWS1
DwwA47NQR6Ozm7oTUNZYWkurOeARygonZwN4ImZtkh4bXEmu5mvRjjudBtPGrE1T
QxCr6JbBh4KXmY8g05kSNzGE4Yr/KQNfIpA+f5vgIMGt3K5MORoxlhcCjLLZtA0g
Ept9hlT9M/3BKmJG+GCWz24BbyLfE0fnl+wFciOjYvj676yccvA3yy83z5CoJ1GG
xtd4CI9+JaIVcKL7HLYVXqCXi4FMCSiKJzuUvHHbW3E3misW4G+1yfVLTyC6Zc+v
ra0CAwEAAaOCAQ4wggEKMAsGA1UdDwQEAwIFoDAJBgNVHRMEAjAAMBEGCWCGSAGG
+EIBAQQEAwIGQDAzBglghkgBhvhCAQ0EJhYkT3BlblNTTCBHZW5lcmF0ZWQgU2Vy
dmVyIENlcnRpZmljYXRlMB0GA1UdDgQWBBTlJW0+rw3dP0zyRRk51RTbfpzArTB0
BgNVHSMEbTBrgBT0p8DMkUavZPOR8if4yLJviocyc6FIpEYwRDELMAkGA1UEBhMC
REUxDzANBgNVBAgMBkhlc3NlbjEUMBIGA1UECgwLcHJpdmFjeWlkZWExDjAMBgNV
BAMMBUNBMDAxggkA+8jrrIPNEgcwEwYDVR0lBAwwCgYIKwYBBQUHAwEwDQYJKoZI
hvcNAQELBQADggEBAI4QPwgeN21tflhU32+iR5LnyN81kd7VXaueLSPvtD4MFKR+
695IKYvaMEHim/vV6znyv2i36uFjNksDU7GVi8tkKv+Ww7HgBHc8758/dUsNyPto
CC7Xo5aBf8SdhOvuIzPGphCx6BayEi4jDFpMZHFKlk3VTXm+PbqFWGCysQph5XU1
VOOomKjQjonsazziFUi1gQhR5P3TVG5W6q1eZzJUcjmccJaAcEv6KYw5Av7zRNIE
8YLevrwSFLVtAIwIoDWCKpbkLc+mI/E60I1JGSyzAX+5e2avlzym4alq1NC8QLSc
3pWSWY2ejVPlZ2BxXwlqzJAA484qIqQLDAwciqQ=
-----END CERTIFICATE-----
