Certificate:
    Data:
        Version: 3 (0x2)
        Serial Number: 268435666 (0x100000d2)
    Signature Algorithm: sha256WithRSAEncryption
        Issuer: C=DE, ST=Hessen, O=privacyidea, CN=CA001
        Validity
            Not Before: Sep  5 11:09:50 2018 GMT
            Not After : Sep  5 11:09:50 2019 GMT
        Subject: C=DE, ST=Hessen, O=privacyidea, CN=usercert
        Subject Public Key Info:
            Public Key Algorithm: rsaEncryption
                Public-Key: (2048 bit)
                Modulus:
                    00:dc:2f:d1:5f:29:97:d4:7c:c3:53:c8:30:bd:4b:
                    67:70:2c:24:6b:b8:5e:eb:21:7a:48:12:56:7c:81:
                    5c:48:75:b6:68:eb:f6:f2:98:4e:50:51:d1:7f:6c:
                    73:f3:0a:a7:ae:be:48:5e:e5:d6:e1:d9:2a:7c:32:
                    6e:4e:fd:08:f6:5a:54:49:23:73:c3:b9:07:18:d1:
                    ef:b3:ac:f8:8a:dc:94:96:a4:90:3a:8e:74:df:e6:
                    0d:37:1b:bd:5b:b7:25:1a:56:39:da:6f:91:aa:5e:
                    1c:74:f3:f9:7c:14:01:83:12:65:76:c7:bb:fe:36:
                    5b:95:e9:72:65:83:ed:3e:98:30:71:fa:87:dd:a3:
                    36:5a:30:03:2e:26:e0:61:d1:bf:02:3f:b6:06:1f:
                    4a:89:28:1c:5c:a2:ff:4e:be:94:e6:8c:e0:da:82:
                    f1:9d:29:32:48:30:73:b4:04:f6:42:1e:be:f7:e2:
                    32:32:27:3c:9d:89:2f:70:3e:85:9a:6f:5c:c5:09:
                    c0:8c:32:2f:72:22:c9:d2:95:1f:b6:ac:72:60:72:
                    b7:82:4d:6b:ce:5b:e3:00:d0:d2:2f:58:c6:e0:10:
                    e5:51:ca:4d:3b:2e:e6:7e:ab:84:d6:56:f1:93:35:
                    a0:93:64:26:81:75:2f:91:b5:16:06:38:0b:db:cc:
                    2d:07
                Exponent: 65537 (0x10001)
        X509v3 extensions:
            X509v3 Key Usage: 
                Digital Signature, Key Encipherment
            X509v3 Basic Constraints: 
                CA:FALSE
            Netscape Cert Type: 
                SSL Server
            Netscape Comment: 
                OpenSSL Generated Server Certificate
            X509v3 Subject Key Identifier: 
                FC:14:D1:F0:4B:8D:00:90:F2:F5:B8:71:9E:4E:97:C3:92:54:AD:0B
            X509v3 Authority Key Identifier: 
                keyid:F4:A7:C0:CC:91:46:AF:64:F3:91:F2:27:F8:C8:B2:6F:8A:87:32:73
                DirName:/C=DE/ST=Hessen/O=privacyidea/CN=CA001
                serial:FB:C8:EB:AC:83:CD:12:07

            X509v3 Extended Key Usage: 
                TLS Web Server Authentication
    Signature Algorithm: sha256WithRSAEncryption
         4e:b4:0f:a4:46:50:27:48:11:11:d6:fd:4a:c8:0f:08:6e:19:
         4f:3e:3b:c3:51:d2:26:18:ea:10:20:e0:ca:cc:b8:77:55:7a:
         bf:10:cd:24:3d:83:cd:0c:41:f8:e2:e5:46:87:a0:80:c1:19:
         e4:8d:d6:87:4d:4b:0b:8f:9b:26:b7:09:38:68:7d:fb:84:99:
         d3:7b:b7:ad:e7:91:c7:ec:94:a8:3a:1a:56:ee:69:e5:35:26:
         10:21:51:5b:ec:ba:42:43:2c:bc:31:42:1b:96:12:e5:42:c7:
         ff:e5:ea:63:4b:66:40:7e:6b:82:ad:92:e8:99:e2:13:2f:61:
         87:b1:b6:74:a4:78:f5:4f:6b:19:a7:97:1d:d3:68:24:3c:73:
         2f:f9:23:b1:e9:66:a4:47:04:15:13:57:28:90:fd:dd:e4:96:
         28:be:80:33:17:2e:f7:81:ec:47:f4:81:94:8f:0c:26:5b:2f:
         ad:6d:06:be:c5:c8:aa:00:b2:84:2f:54:9d:41:3e:a6:f7:ef:
         72:8b:f7:d4:fa:64:06:e9:62:41:50:46:6f:c0:ca:6d:a0:f0:
         31:25:a8:6d:3f:27:9f:0a:aa:f1:5f:e0:23:f1:63:c9:68:cd:
         fd:03:a5:2e:dd:06:ec:6d:e8:fa:b8:c3:6a:da:ff:47:cd:28:
         87:9d:31:96
-----BEGIN CERTIFICATE-----
MIIEGTCCAwGgAwIBAgIEEAAA0jANBgkqhkiG9w0BAQsFADBEMQswCQYDVQQGEwJE
RTEPMA0GA1UECAwGSGVzc2VuMRQwEgYDVQQKDAtwcml2YWN5aWRlYTEOMAwGA1UE
AwwFQ0EwMDEwHhcNMTgwOTA1MTEwOTUwWhcNMTkwOTA1MTEwOTUwWjBHMQswCQYD
VQQGEwJERTEPMA0GA1UECAwGSGVzc2VuMRQwEgYDVQQKDAtwcml2YWN5aWRlYTER
MA8GA1UEAwwIdXNlcmNlcnQwggEiMA0GCSqGSIb3DQEBAQUAA4IBDwAwggEKAoIB
AQDcL9FfKZfUfMNTyDC9S2dwLCRruF7rIXpIElZ8gVxIdbZo6/bymE5QUdF/bHPz
Cqeuvkhe5dbh2Sp8Mm5O/Qj2WlRJI3PDuQcY0e+zrPiK3JSWpJA6jnTf5g03G71b
tyUaVjnab5GqXhx08/l8FAGDEmV2x7v+NluV6XJlg+0+mDBx+ofdozZaMAMuJuBh
0b8CP7YGH0qJKBxcov9OvpTmjODagvGdKTJIMHO0BPZCHr734jIyJzydiS9wPoWa
b1zFCcCMMi9yIsnSlR+2rHJgcreCTWvOW+MA0NIvWMbgEOVRyk07LuZ+q4TWVvGT
NaCTZCaBdS+RtRYGOAvbzC0HAgMBAAGjggEOMIIBCjALBgNVHQ8EBAMCBaAwCQYD
VR0TBAIwADARBglghkgBhvhCAQEEBAMCBkAwMwYJYIZIAYb4QgENBCYWJE9wZW5T
U0wgR2VuZXJhdGVkIFNlcnZlciBDZXJ0aWZpY2F0ZTAdBgNVHQ4EFgQU/BTR8EuN
AJDy9bhxnk6Xw5JUrQswdAYDVR0jBG0wa4AU9KfAzJFGr2TzkfIn+Miyb4qHMnOh
SKRGMEQxCzAJBgNVBAYTAkRFMQ8wDQYDVQQIDAZIZXNzZW4xFDASBgNVBAoMC3By
aXZhY3lpZGVhMQ4wDAYDVQQDDAVDQTAwMYIJAPvI66yDzRIHMBMGA1UdJQQMMAoG
CCsGAQUFBwMBMA0GCSqGSIb3DQEBCwUAA4IBAQBOtA+kRlAnSBER1v1KyA8IbhlP
PjvDUdImGOoQIODKzLh3VXq/EM0kPYPNDEH44uVGh6CAwRnkjdaHTUsLj5smtwk4
aH37hJnTe7et55HH7JSoOhpW7mnlNSYQIVFb7LpCQyy8MUIblhLlQsf/5epjS2ZA
fmuCrZLomeITL2GHsbZ0pHj1T2sZp5cd02gkPHMv+SOx6WakRwQVE1cokP3d5JYo
voAzFy73gexH9IGUjwwmWy+tbQa+xciqALKEL1SdQT6m9+9yi/fU+mQG6WJBUEZv
wMptoPAxJahtPyefCqrxX+Aj8WPJaM39A6Uu3Qbsbej6uMNq2v9HzSiHnTGW
-----END CERTIFICATE-----
