(dp1
VDATASERVICE_ACTIVESTORESLIST
p2
Vv1/DATASERVICE_ACTIVESTORESLIST
p3
sVAUTHSERVICE_LOGOUT
p4
Vv1/AUTHSERVICE_LOGOUT
p5
sVSTART_ALL_SERVICES
p6
Vv1/START_ALL_SERVICES
p7
sVCONFIG_REGISTER_DEVICE
p8
Vv1/CONFIG_REGISTER_DEVICE
p9
sVDATASERVICE_DELETEFEATURE
p10
Vv1/DATASERVICE_DELETEFEATURE
p11
sVSENSORSERVICE_GPS
p12
Vv1/SENSORSERVICE_GPS
p13
sVDATASERVICE_STORELIST
p14
Vv1/DATASERVICE_STORELIST
p15
sVCONFIG_REMOVE_STORE
p16
Vv1/CONFIG_REMOVE_STORE
p17
sVBACKENDSERVICE_CONNECTED
p18
Vv1/BACKENDSERVICE_CONNECTED
p19
sVDATASERVICE_QUERYALL
p20
Vv1/DATASERVICE_QUERYALL
p21
sVNOTIFICATION_INFO
p22
Vv1/NOTIFICATION_INFO
p23
sVNOTIFICATION_ALERT
p24
Vv1/NOTIFICATION_ALERT
p25
sVNOTIFICATION_CONTENT_AVAILABLE
p26
Vv1/NOTIFICATION_CONTENT_AVAILABLE
p27
sVAUTHSERVICE_LOGIN_STATUS
p28
Vv1/AUTHSERVICE_LOGIN_STATUS
p29
sVDATASERVICE_CREATEFEATURE
p30
Vv1/DATASERVICE_CREATEFEATURE
p31
sVCONFIG_ADD_FORM
p32
Vv1/CONFIG_ADD_FORM
p33
sVCONFIG_FORM_LIST
p34
Vv1/CONFIG_FORM_LIST
p35
sVCONFIG_UPDATE_FORM
p36
Vv1/CONFIG_UPDATE_FORM
p37
sVDATASERVICE_SPATIALQUERY
p38
Vv1/DATASERVICE_SPATIALQUERY
p39
sVAUTHSERVICE_AUTHENTICATE
p40
Vv1/AUTHSERVICE_AUTHENTICATE
p41
sVDATASERVICE_SPATIALQUERYALL
p42
Vv1/DATASERVICE_SPATIALQUERYALL
p43
sVCONFIG_REMOVE_FORM
p44
Vv1/CONFIG_REMOVE_FORM
p45
sVDATASERVICE_FORMLIST
p46
Vv1/DATASERVICE_FORMLIST
p47
sVNO_ACTION
p48
Vv1/NO_ACTION
p49
sVDATASERVICE_QUERY
p50
Vv1/DATASERVICE_QUERY
p51
sVCONFIG_ADD_STORE
p52
Vv1/CONFIG_ADD_STORE
p53
sVAUTHSERVICE_ACCESS_TOKEN
p54
Vv1/AUTHSERVICE_ACCESS_TOKEN
p55
sVNETWORKSERVICE_POST_REQUEST
p56
Vv1/NETWORKSERVICE_POST_REQUEST
p57
sVCONFIG_FULL
p58
Vv1/CONFIG_FULL
p59
sVCONFIG_STORE_LIST
p60
Vv1/CONFIG_STORE_LIST
p61
sVCOMMAND_STATUS_UNSUBSCRIBE
p62
Vv1/COMMAND_STATUS_UNSUBSCRIBE
p63
sVDEVICE_INFO
p64
Vv1/DEVICE_INFO
p65
sS'_version'
p66
V0.18.3
p67
sVDATASERVICE_UPDATEFEATURE
p68
Vv1/DATASERVICE_UPDATEFEATURE
p69
sVCOMMAND_STATUS_SUBSCRIBE
p70
Vv1/COMMAND_STATUS_SUBSCRIBE
p71
sVSPATIALIO_IMPORT
p72
Vv1/SPATIALIO_IMPORT
p73
sVNOTIFICATIONS
p74
Vv1/NOTIFICATIONS
p75
sVNETWORKSERVICE_GET_REQUEST
p76
Vv1/NETWORKSERVICE_GET_REQUEST
p77
sVCONFIG_UPDATE_STORE
p78
Vv1/CONFIG_UPDATE_STORE
p79
sVGDAL_INFO
p80
Vv1/GDAL_INFO
p81
sVDATASERVICE_ACTIVESTOREBYID
p82
Vv1/DATASERVICE_ACTIVESTOREBYID
p83
sVCOG_TRANSFORM
p84
Vv1/COG_TRANSFORM
p85
sVBACKENDSERVICE_HTTP_URI
p86
Vv1/BACKENDSERVICE_HTTP_URI
p87
s.