(dp1
VGDAL_INFO_SUCCESS
p2
Vv1/GDAL_INFO_SUCCESS
p3
sVPOSTGIS_DROP_TABLE_ERROR
p4
Vv1/POSTGIS_DROP_TABLE_ERROR
p5
sVGEOSERVER_LAYER_DELETED
p6
Vv1/GEOSERVER_LAYER_DELETED
p7
sVSIO_RASTER_READ_ERROR
p8
Vv1/SIO_RASTER_READ_ERROR
p9
sVWORM_WS_READ_ERROR
p10
Vv1/WORM_WS_READ_ERROR
p11
sVGEOSERVER_CREATE_WORKSPACE_ERROR
p12
Vv1/GEOSERVER_CREATE_WORKSPACE_ERROR
p13
sVGEOSERVER_DATASTORE_UNAVAILABLE
p14
Vv1/GEOSERVER_DATASTORE_UNAVAILABLE
p15
sVCOG_TRANSFORM_ERROR
p16
Vv1/COG_TRANSFORM_ERROR
p17
sVGEOSERVER_INVALID_NAME_ERROR
p18
Vv1/GEOSERVER_INVALID_NAME_ERROR
p19
sVS3_ERROR
p20
Vv1/S3_ERROR
p21
sVPOSTGIS_LOAD_RECORDS_ERROR
p22
Vv1/POSTGIS_LOAD_RECORDS_ERROR
p23
sVSIO_FGDB_INVALID_ZIP_FILE_ERROR
p24
Vv1/SIO_FGDB_INVALID_ZIP_FILE_ERROR
p25
sVGEOSERVER_UNAVAILABLE
p26
Vv1/GEOSERVER_UNAVAILABLE
p27
sVSIO_INVALID_FILE_ERROR
p28
Vv1/SIO_INVALID_FILE_ERROR
p29
sVCOG_TRANSFORM_SUCCESS
p30
Vv1/COG_TRANSFORM_SUCCESS
p31
sVCOMMAND_UNMARSHAL_ERROR
p32
Vv1/COMMAND_UNMARSHAL_ERROR
p33
sVGEOSERVER_DELETE_FEATURETYPE_ERROR
p34
Vv1/GEOSERVER_DELETE_FEATURETYPE_ERROR
p35
sVSIO_IMPORT_SUCCESS
p36
Vv1/SIO_IMPORT_SUCCESS
p37
sVGEOSERVER_WORKSPACE_UNAVAILABLE
p38
Vv1/GEOSERVER_WORKSPACE_UNAVAILABLE
p39
sVGEOSERVER_LAYER_PUBLISHED
p40
Vv1/GEOSERVER_LAYER_PUBLISHED
p41
sVGEOSERVER_CREATE_DATASTORE_ERROR
p42
Vv1/GEOSERVER_CREATE_DATASTORE_ERROR
p43
sVSIO_SHP_MISMATCHED_GEOMETERY_TYPE_ERROR
p44
Vv1/SIO_SHP_MISMATCHED_GEOMETERY_TYPE_ERROR
p45
sVSIO_GEOJSON_INVALID_ATTRIBUTE_TYPE_ERROR
p46
Vv1/SIO_GEOJSON_INVALID_ATTRIBUTE_TYPE_ERROR
p47
sVGEOSERVER_LAYER_PUBLISH_ERROR
p48
Vv1/GEOSERVER_LAYER_PUBLISH_ERROR
p49
sVGEOSERVER_LAYER_UPDATED
p50
Vv1/GEOSERVER_LAYER_UPDATED
p51
sVGEOSERVER_UPDATE_FEATURETYPE_ERROR
p52
Vv1/GEOSERVER_UPDATE_FEATURETYPE_ERROR
p53
sVGEOSERVER_CREATE_FEATURETYPE_ERROR
p54
Vv1/GEOSERVER_CREATE_FEATURETYPE_ERROR
p55
sVSIO_GEOPKG_SCHEMA_MISSING_GEOM_ERROR
p56
Vv1/SIO_GEOPKG_SCHEMA_NO_GEOM_ERROR
p57
sVSIO_MISSING_PROJECTION_ERROR
p58
Vv1/SIO_MISSING_PROJECTION_ERROR
p59
sVNO_LAYERS_FOUND
p60
Vv1/NO_LAYERS_FOUND
p61
sS'_version'
p62
V0.18.3
p63
sVSIO_IMPORT_FAIL
p64
Vv1/SIO_IMPORT_FAIL
p65
sVGEOSERVER_PERMISSION_DENIED
p66
Vv1/GEOSERVER_PERMISSION_DENIED
p67
sVGDAL_INFO_ERROR
p68
Vv1/GDAL_INFO_ERROR
p69
sVNO_FILES_TO_PROCESS
p70
Vv1/NO_FILES_TO_PROCESS
p71
sVPOSTGIS_CREATE_TABLE_ERROR
p72
Vv1/POSTGIS_CREATE_TABLE_ERROR
p73
sVNOT_A_VALID_SPATIAL_FILE
p74
Vv1/NOT_A_VALID_SPATIAL_FILE
p75
sVSIO_INVALID_IMPORT_MSG_ERROR
p76
Vv1/SIO_INVALID_IMPORT_MSG_ERROR
p77
sVSIO_IMPORT_INFO
p78
Vv1/SIO_IMPORT_INFO
p79
s.