Certificate:
    Data:
        Version: 3 (0x2)
        Serial Number: 268435664 (0x100000d0)
    Signature Algorithm: sha256WithRSAEncryption
        Issuer: C=DE, ST=Hessen, O=privacyidea, CN=CA001
        Validity
            Not Before: Jul 31 12:42:36 2018 GMT
            Not After : Jul 31 12:42:36 2019 GMT
        Subject: CN=selfservice,CN=user,O=realm1/emailAddress=meine
        Subject Public Key Info:
            Public Key Algorithm: rsaEncryption
                Public-Key: (2048 bit)
                Modulus:
                    00:cf:3c:d4:33:0e:12:c4:e6:da:cd:b6:56:a1:1c:
                    26:bb:26:1c:8a:4a:73:a8:58:8a:b6:1e:b3:8b:99:
                    d2:1d:07:c2:92:89:79:c0:69:d8:c8:df:28:61:98:
                    1e:b3:fe:ae:2b:bd:78:a9:f7:6e:47:dc:a3:a0:16:
                    8c:85:02:c1:4e:92:fd:72:6e:f0:c8:03:29:9b:b8:
                    00:6e:c0:83:95:c8:34:20:36:9c:b3:e5:e4:e6:76:
                    73:a3:1a:ad:40:96:e0:53:54:00:ec:76:79:9a:c6:
                    0d:7e:b6:bd:29:ec:83:f3:cb:89:a4:cb:6c:00:ba:
                    0c:c5:78:0f:ff:69:b8:94:f4:04:70:43:3f:d8:9e:
                    d7:a7:fb:5d:ce:75:8e:da:e7:c4:07:b1:9d:de:6f:
                    88:4b:b6:4d:9a:cf:f9:bc:fa:9f:cd:32:6d:f6:3a:
                    0b:0d:23:42:78:ec:97:42:bf:0e:4d:60:56:e1:d3:
                    02:f2:19:cb:84:57:90:e5:70:a1:a2:83:35:86:e2:
                    da:86:9f:f9:8a:c4:79:b3:52:28:da:cb:bb:34:ca:
                    d3:da:91:4a:cf:8d:76:a2:b2:6b:9b:f9:96:fd:09:
                    2a:da:11:23:4d:f0:cb:d6:b2:b1:0e:12:6c:9a:19:
                    65:98:87:ca:e4:ee:24:ce:44:ac:90:8f:9d:1b:c5:
                    2a:9d
                Exponent: 65537 (0x10001)
        X509v3 extensions:
            X509v3 Key Usage: 
                Digital Signature, Key Encipherment
            X509v3 Basic Constraints: 
                CA:FALSE
            Netscape Cert Type: 
                SSL Server
            Netscape Comment: 
                OpenSSL Generated Server Certificate
            X509v3 Subject Key Identifier: 
                4D:07:90:AD:FF:1D:0D:E7:1A:DD:D6:2E:FA:BA:34:CB:AA:1F:24:C6
            X509v3 Authority Key Identifier: 
                keyid:F4:A7:C0:CC:91:46:AF:64:F3:91:F2:27:F8:C8:B2:6F:8A:87:32:73
                DirName:/C=DE/ST=Hessen/O=privacyidea/CN=CA001
                serial:FB:C8:EB:AC:83:CD:12:07

            X509v3 Extended Key Usage: 
                TLS Web Server Authentication
    Signature Algorithm: sha256WithRSAEncryption
         09:e0:77:4e:70:1d:ae:7b:63:5d:62:c6:d8:2f:eb:ad:47:df:
         e5:3b:da:29:28:fb:8e:c2:d3:ca:d9:ca:f0:f3:9a:7e:7b:b0:
         c8:4f:51:8d:92:3f:77:cf:3a:1f:5b:85:0c:51:2b:38:be:e1:
         a2:b2:54:8d:eb:53:ce:3d:b0:13:33:31:4d:b8:67:ad:8c:01:
         53:cb:94:5c:0e:71:16:73:89:79:59:f0:8f:33:ba:14:2f:e6:
         57:97:3e:43:19:81:20:f2:e0:96:ed:30:7f:01:60:c5:77:5c:
         f5:9f:8b:45:e1:b5:ea:f4:53:3f:7b:1c:84:ab:46:02:ed:92:
         44:24:5a:96:bc:88:09:76:fc:9a:33:55:c5:d1:11:ef:93:68:
         1d:07:38:54:1a:7b:f0:ea:98:84:c0:09:30:95:78:dc:16:92:
         df:22:49:c0:05:73:07:e3:37:ee:9c:98:ca:c6:9a:24:e7:da:
         ad:4a:8e:cb:c4:b0:8d:9a:78:0d:24:2a:1f:a4:f6:a0:79:49:
         e0:ac:d9:60:5e:c5:ae:65:50:91:d3:bb:23:66:e0:b5:b0:6a:
         da:57:37:3a:2a:db:bd:9d:cf:64:59:8d:74:57:59:99:bd:6c:
         f7:c2:4b:35:a4:a3:7a:47:c1:83:fd:45:4c:ec:a4:52:7c:fc:
         ab:ff:e6:ce
-----BEGIN CERTIFICATE-----
MIIEDzCCAvegAwIBAgIEEAAA0DANBgkqhkiG9w0BAQsFADBEMQswCQYDVQQGEwJE
RTEPMA0GA1UECAwGSGVzc2VuMRQwEgYDVQQKDAtwcml2YWN5aWRlYTEOMAwGA1UE
AwwFQ0EwMDEwHhcNMTgwNzMxMTI0MjM2WhcNMTkwNzMxMTI0MjM2WjA9MSUwIwYD
VQQDDBxzZWxmc2VydmljZSxDTj11c2VyLE89cmVhbG0xMRQwEgYJKoZIhvcNAQkB
FgVtZWluZTCCASIwDQYJKoZIhvcNAQEBBQADggEPADCCAQoCggEBAM881DMOEsTm
2s22VqEcJrsmHIpKc6hYirYes4uZ0h0HwpKJecBp2MjfKGGYHrP+riu9eKn3bkfc
o6AWjIUCwU6S/XJu8MgDKZu4AG7Ag5XINCA2nLPl5OZ2c6MarUCW4FNUAOx2eZrG
DX62vSnsg/PLiaTLbAC6DMV4D/9puJT0BHBDP9ie16f7Xc51jtrnxAexnd5viEu2
TZrP+bz6n80ybfY6Cw0jQnjsl0K/Dk1gVuHTAvIZy4RXkOVwoaKDNYbi2oaf+YrE
ebNSKNrLuzTK09qRSs+NdqKya5v5lv0JKtoRI03wy9aysQ4SbJoZZZiHyuTuJM5E
rJCPnRvFKp0CAwEAAaOCAQ4wggEKMAsGA1UdDwQEAwIFoDAJBgNVHRMEAjAAMBEG
CWCGSAGG+EIBAQQEAwIGQDAzBglghkgBhvhCAQ0EJhYkT3BlblNTTCBHZW5lcmF0
ZWQgU2VydmVyIENlcnRpZmljYXRlMB0GA1UdDgQWBBRNB5Ct/x0N5xrd1i76ujTL
qh8kxjB0BgNVHSMEbTBrgBT0p8DMkUavZPOR8if4yLJviocyc6FIpEYwRDELMAkG
A1UEBhMCREUxDzANBgNVBAgMBkhlc3NlbjEUMBIGA1UECgwLcHJpdmFjeWlkZWEx
DjAMBgNVBAMMBUNBMDAxggkA+8jrrIPNEgcwEwYDVR0lBAwwCgYIKwYBBQUHAwEw
DQYJKoZIhvcNAQELBQADggEBAAngd05wHa57Y11ixtgv661H3+U72iko+47C08rZ
yvDzmn57sMhPUY2SP3fPOh9bhQxRKzi+4aKyVI3rU849sBMzMU24Z62MAVPLlFwO
cRZziXlZ8I8zuhQv5leXPkMZgSDy4JbtMH8BYMV3XPWfi0Xhter0Uz97HISrRgLt
kkQkWpa8iAl2/JozVcXREe+TaB0HOFQae/DqmITACTCVeNwWkt8iScAFcwfjN+6c
mMrGmiTn2q1KjsvEsI2aeA0kKh+k9qB5SeCs2WBexa5lUJHTuyNm4LWwatpXNzoq
272dz2RZjXRXWZm9bPfCSzWko3pHwYP9RUzspFJ8/Kv/5s4=
-----END CERTIFICATE-----
