Certificate:
    Data:
        Version: 3 (0x2)
        Serial Number: 268435667 (0x100000d3)
    Signature Algorithm: sha256WithRSAEncryption
        Issuer: C=DE, ST=Hessen, O=privacyidea, CN=CA001
        Validity
            Not Before: Jul 31 12:28:14 2018 GMT
            Not After : Jul 31 12:28:14 2019 GMT
        Subject: CN=Steve Test/emailAddress=steve@openssl.org
        Subject Public Key Info:
            Public Key Algorithm: rsaEncryption
                Public-Key: (2048 bit)
                Modulus:
                    00:d2:81:89:20:51:48:0f:73:f4:11:32:24:d5:1f:
                    1c:fd:5c:f5:b6:e6:c5:f0:52:81:dc:d2:af:66:4a:
                    7c:93:31:61:5c:af:d1:6d:06:70:03:60:7c:72:0c:
                    88:dd:49:cd:9e:02:6c:d2:5a:d7:53:0f:f3:da:be:
                    69:64:b5:0f:0c:00:e3:b3:50:47:a3:b3:9b:ba:13:
                    50:d6:58:5a:4b:ab:39:e0:11:ca:0a:27:67:03:78:
                    22:66:6d:92:1e:1b:5c:49:ae:e6:6b:d1:8e:3b:9d:
                    06:d3:c6:ac:4d:53:43:10:ab:e8:96:c1:87:82:97:
                    99:8f:20:d3:99:12:37:31:84:e1:8a:ff:29:03:5f:
                    22:90:3e:7f:9b:e0:20:c1:ad:dc:ae:4c:39:1a:31:
                    96:17:02:8c:b2:d9:b4:0d:20:12:9b:7d:86:54:fd:
                    33:fd:c1:2a:62:46:f8:60:96:cf:6e:01:6f:22:df:
                    13:47:e7:97:ec:05:72:23:a3:62:f8:fa:ef:ac:9c:
                    72:f0:37:cb:2f:37:cf:90:a8:27:51:86:c6:d7:78:
                    08:8f:7e:25:a2:15:70:a2:fb:1c:b6:15:5e:a0:97:
                    8b:81:4c:09:28:8a:27:3b:94:bc:71:db:5b:71:37:
                    9a:2b:16:e0:6f:b5:c9:f5:4b:4f:20:ba:65:cf:af:
                    ad:ad
                Exponent: 65537 (0x10001)
        X509v3 extensions:
            X509v3 Key Usage: 
                Digital Signature, Key Encipherment
            X509v3 Basic Constraints: 
                CA:FALSE
            Netscape Cert Type: 
                SSL Server
            Netscape Comment: 
                OpenSSL Generated Server Certificate
            X509v3 Subject Key Identifier: 
                E5:25:6D:3E:AF:0D:DD:3F:4C:F2:45:19:39:D5:14:DB:7E:9C:C0:AD
            X509v3 Authority Key Identifier: 
                keyid:F4:A7:C0:CC:91:46:AF:64:F3:91:F2:27:F8:C8:B2:6F:8A:87:32:73
                DirName:/C=DE/ST=Hessen/O=privacyidea/CN=CA001
                serial:FB:C8:EB:AC:83:CD:12:07

            X509v3 Extended Key Usage: 
                TLS Web Server Authentication
    Signature Algorithm: sha256WithRSAEncryption
         9b:74:da:68:a8:a9:de:7e:fc:59:a4:36:cf:06:45:35:66:72:
         5f:3d:fe:3a:96:e2:02:4e:4f:0b:a7:47:b3:17:4b:9a:2a:96:
         d4:b9:58:6c:26:e0:35:b6:3c:77:c1:5a:9d:cc:e1:c0:d3:84:
         0e:72:ad:e2:ed:35:1b:1a:ee:65:c2:dc:12:54:09:e0:d9:ef:
         7c:5d:3a:2a:fd:5e:42:a2:13:91:14:a7:3d:b0:af:58:d1:0e:
         7a:14:ba:16:b7:85:53:ad:80:67:26:d1:72:66:40:73:76:15:
         58:03:91:07:e6:32:25:a2:69:8d:d4:71:f5:74:b4:50:2d:81:
         58:b5:d4:8d:1e:b0:46:89:9a:9e:e5:99:c3:24:4d:70:e2:12:
         bd:f7:fa:7c:7f:28:e1:21:d3:f3:1f:a4:c7:27:4c:25:91:64:
         92:69:48:8d:b2:a0:77:32:e3:35:16:29:d3:af:36:a8:ca:22:
         60:c4:26:b9:d2:e0:7f:b7:68:1c:31:31:07:71:fe:cd:f8:7f:
         c5:df:14:01:68:2f:b2:54:fb:16:83:48:83:31:55:62:bf:a4:
         07:c0:f9:ee:c2:1a:ed:02:79:79:e4:cb:b0:dd:03:b0:33:2e:
         16:b2:93:ec:a9:27:2c:a1:ea:15:8f:8e:d6:a2:57:83:b9:07:
         17:c1:8d:d4
-----BEGIN CERTIFICATE-----
MIIECTCCAvGgAwIBAgIEEAAA0zANBgkqhkiG9w0BAQsFADBEMQswCQYDVQQGEwJE
RTEPMA0GA1UECAwGSGVzc2VuMRQwEgYDVQQKDAtwcml2YWN5aWRlYTEOMAwGA1UE
AwwFQ0EwMDEwHhcNMTgwNzMxMTIyODE0WhcNMTkwNzMxMTIyODE0WjA3MRMwEQYD
VQQDDApTdGV2ZSBUZXN0MSAwHgYJKoZIhvcNAQkBFhFzdGV2ZUBvcGVuc3NsLm9y
ZzCCASIwDQYJKoZIhvcNAQEBBQADggEPADCCAQoCggEBANKBiSBRSA9z9BEyJNUf
HP1c9bbmxfBSgdzSr2ZKfJMxYVyv0W0GcANgfHIMiN1JzZ4CbNJa11MP89q+aWS1
DwwA47NQR6Ozm7oTUNZYWkurOeARygonZwN4ImZtkh4bXEmu5mvRjjudBtPGrE1T
QxCr6JbBh4KXmY8g05kSNzGE4Yr/KQNfIpA+f5vgIMGt3K5MORoxlhcCjLLZtA0g
Ept9hlT9M/3BKmJG+GCWz24BbyLfE0fnl+wFciOjYvj676yccvA3yy83z5CoJ1GG
xtd4CI9+JaIVcKL7HLYVXqCXi4FMCSiKJzuUvHHbW3E3misW4G+1yfVLTyC6Zc+v
ra0CAwEAAaOCAQ4wggEKMAsGA1UdDwQEAwIFoDAJBgNVHRMEAjAAMBEGCWCGSAGG
+EIBAQQEAwIGQDAzBglghkgBhvhCAQ0EJhYkT3BlblNTTCBHZW5lcmF0ZWQgU2Vy
dmVyIENlcnRpZmljYXRlMB0GA1UdDgQWBBTlJW0+rw3dP0zyRRk51RTbfpzArTB0
BgNVHSMEbTBrgBT0p8DMkUavZPOR8if4yLJviocyc6FIpEYwRDELMAkGA1UEBhMC
REUxDzANBgNVBAgMBkhlc3NlbjEUMBIGA1UECgwLcHJpdmFjeWlkZWExDjAMBgNV
BAMMBUNBMDAxggkA+8jrrIPNEgcwEwYDVR0lBAwwCgYIKwYBBQUHAwEwDQYJKoZI
hvcNAQELBQADggEBAJt02mioqd5+/FmkNs8GRTVmcl89/jqW4gJOTwunR7MXS5oq
ltS5WGwm4DW2PHfBWp3M4cDThA5yreLtNRsa7mXC3BJUCeDZ73xdOir9XkKiE5EU
pz2wr1jRDnoUuha3hVOtgGcm0XJmQHN2FVgDkQfmMiWiaY3UcfV0tFAtgVi11I0e
sEaJmp7lmcMkTXDiEr33+nx/KOEh0/MfpMcnTCWRZJJpSI2yoHcy4zUWKdOvNqjK
ImDEJrnS4H+3aBwxMQdx/s34f8XfFAFoL7JU+xaDSIMxVWK/pAfA+e7CGu0CeXnk
y7DdA7AzLhayk+ypJyyh6hWPjtaiV4O5BxfBjdQ=
-----END CERTIFICATE-----
