Certificate:
    Data:
        Version: 3 (0x2)
        Serial Number: 268435665 (0x100000d1)
    Signature Algorithm: sha256WithRSAEncryption
        Issuer: C=DE, ST=Hessen, O=privacyidea, CN=CA001
        Validity
            Not Before: Jul 31 12:28:13 2018 GMT
            Not After : Jul 31 12:28:13 2019 GMT
        Subject: C=DE, ST=Hessen, O=privacyidea, CN=requester.localdomain
        Subject Public Key Info:
            Public Key Algorithm: rsaEncryption
                Public-Key: (2048 bit)
                Modulus:
                    00:cd:be:14:4f:fa:ce:01:3f:42:22:1b:1d:9c:af:
                    dd:92:d2:7f:db:6c:b7:3e:39:43:43:6b:13:03:f1:
                    05:f4:07:74:bc:76:69:28:0b:af:19:8e:d7:fc:e3:
                    cd:c6:58:f2:ca:7f:08:6d:53:fc:07:02:44:24:c6:
                    b4:34:4c:8c:04:fe:33:0e:40:e2:20:ba:02:73:5a:
                    f7:f5:4f:63:6e:cc:c6:b6:df:54:1d:37:39:7d:51:
                    36:26:5f:bd:dc:3f:a8:8b:6b:a2:ae:b6:9d:d6:21:
                    e7:df:41:b8:7a:28:2a:68:48:ca:a8:2d:ed:e1:e9:
                    46:5e:5a:72:6d:b4:84:38:87:91:fd:94:11:0b:28:
                    84:c6:c2:2f:2a:fb:01:f9:36:7a:09:75:d1:33:88:
                    3c:73:41:5b:c8:bf:94:89:70:a1:f0:c0:b9:2e:50:
                    53:1e:b1:17:64:69:f4:2d:81:e0:a9:0d:0e:32:e9:
                    ba:55:8a:85:f1:1b:6f:49:79:b4:7f:88:c3:0d:3e:
                    54:88:9b:3d:1f:38:8c:04:f3:ee:6a:63:2b:f5:c6:
                    db:b4:83:aa:c4:78:41:3a:7d:4b:e1:c8:3e:71:ca:
                    1b:61:59:ea:c6:c4:ca:32:5e:c9:e9:bf:12:29:e6:
                    c6:c3:63:fe:a0:55:da:7a:f1:60:98:4d:26:ed:fa:
                    70:2d
                Exponent: 65537 (0x10001)
        X509v3 extensions:
            X509v3 Key Usage: 
                Digital Signature, Key Encipherment
            X509v3 Basic Constraints: 
                CA:FALSE
            Netscape Cert Type: 
                SSL Server
            Netscape Comment: 
                OpenSSL Generated Server Certificate
            X509v3 Subject Key Identifier: 
                53:3F:ED:5D:09:07:B3:65:7B:AB:45:C9:24:5B:09:77:80:0A:96:ED
            X509v3 Authority Key Identifier: 
                keyid:F4:A7:C0:CC:91:46:AF:64:F3:91:F2:27:F8:C8:B2:6F:8A:87:32:73
                DirName:/C=DE/ST=Hessen/O=privacyidea/CN=CA001
                serial:FB:C8:EB:AC:83:CD:12:07

            X509v3 Extended Key Usage: 
                TLS Web Server Authentication
    Signature Algorithm: sha256WithRSAEncryption
         3b:22:84:ee:53:12:2d:5e:6b:21:00:cd:a7:0f:b8:09:44:5a:
         d9:21:85:5e:a1:bc:8a:d9:4f:8b:4f:4b:0c:f5:d7:f6:ad:22:
         97:ee:f0:cd:02:a4:53:4e:b9:96:a9:bd:82:88:ab:a1:53:e5:
         b8:d4:9b:1a:9a:89:ac:eb:df:1f:08:c1:ec:f7:72:7f:ae:72:
         50:cc:47:01:40:1d:b7:db:78:19:73:b1:1f:2d:7d:95:14:45:
         e2:e8:92:99:9d:0f:75:92:ca:91:ba:6d:9c:f8:e5:61:7c:58:
         9c:08:17:29:37:37:d6:97:a3:a5:1d:fe:a4:f0:86:73:4e:04:
         e2:61:41:36:9d:77:ce:6f:96:41:6b:91:75:3d:10:76:60:7a:
         4b:f9:1a:9c:0f:80:6b:85:5f:6e:dd:e0:8c:d9:c6:d1:f0:b2:
         ae:ea:7a:72:95:9a:43:31:7c:80:98:c3:fc:17:9f:77:57:bc:
         5c:67:17:18:bc:82:b8:54:52:eb:b2:94:64:f6:b9:7a:8b:89:
         eb:6e:c7:d9:7e:3f:2b:8e:ca:89:bb:d8:13:53:c8:58:c0:4c:
         99:bb:f2:6c:ea:5c:39:b4:79:d7:ee:03:ae:85:82:e9:d4:45:
         2c:85:8f:44:25:0c:ed:e7:0b:52:34:f6:13:bc:29:fc:87:1e:
         4c:b4:f5:09
-----BEGIN CERTIFICATE-----
MIIEJjCCAw6gAwIBAgIEEAAA0TANBgkqhkiG9w0BAQsFADBEMQswCQYDVQQGEwJE
RTEPMA0GA1UECAwGSGVzc2VuMRQwEgYDVQQKDAtwcml2YWN5aWRlYTEOMAwGA1UE
AwwFQ0EwMDEwHhcNMTgwNzMxMTIyODEzWhcNMTkwNzMxMTIyODEzWjBUMQswCQYD
VQQGEwJERTEPMA0GA1UECAwGSGVzc2VuMRQwEgYDVQQKDAtwcml2YWN5aWRlYTEe
MBwGA1UEAwwVcmVxdWVzdGVyLmxvY2FsZG9tYWluMIIBIjANBgkqhkiG9w0BAQEF
AAOCAQ8AMIIBCgKCAQEAzb4UT/rOAT9CIhsdnK/dktJ/22y3PjlDQ2sTA/EF9Ad0
vHZpKAuvGY7X/OPNxljyyn8IbVP8BwJEJMa0NEyMBP4zDkDiILoCc1r39U9jbszG
tt9UHTc5fVE2Jl+93D+oi2uirrad1iHn30G4eigqaEjKqC3t4elGXlpybbSEOIeR
/ZQRCyiExsIvKvsB+TZ6CXXRM4g8c0FbyL+UiXCh8MC5LlBTHrEXZGn0LYHgqQ0O
Mum6VYqF8RtvSXm0f4jDDT5UiJs9HziMBPPuamMr9cbbtIOqxHhBOn1L4cg+ccob
YVnqxsTKMl7J6b8SKebGw2P+oFXaevFgmE0m7fpwLQIDAQABo4IBDjCCAQowCwYD
VR0PBAQDAgWgMAkGA1UdEwQCMAAwEQYJYIZIAYb4QgEBBAQDAgZAMDMGCWCGSAGG
+EIBDQQmFiRPcGVuU1NMIEdlbmVyYXRlZCBTZXJ2ZXIgQ2VydGlmaWNhdGUwHQYD
VR0OBBYEFFM/7V0JB7Nle6tFySRbCXeACpbtMHQGA1UdIwRtMGuAFPSnwMyRRq9k
85HyJ/jIsm+KhzJzoUikRjBEMQswCQYDVQQGEwJERTEPMA0GA1UECAwGSGVzc2Vu
MRQwEgYDVQQKDAtwcml2YWN5aWRlYTEOMAwGA1UEAwwFQ0EwMDGCCQD7yOusg80S
BzATBgNVHSUEDDAKBggrBgEFBQcDATANBgkqhkiG9w0BAQsFAAOCAQEAOyKE7lMS
LV5rIQDNpw+4CURa2SGFXqG8itlPi09LDPXX9q0il+7wzQKkU065lqm9goiroVPl
uNSbGpqJrOvfHwjB7Pdyf65yUMxHAUAdt9t4GXOxHy19lRRF4uiSmZ0PdZLKkbpt
nPjlYXxYnAgXKTc31pejpR3+pPCGc04E4mFBNp13zm+WQWuRdT0QdmB6S/kanA+A
a4Vfbt3gjNnG0fCyrup6cpWaQzF8gJjD/Befd1e8XGcXGLyCuFRS67KUZPa5eouJ
627H2X4/K47KibvYE1PIWMBMmbvybOpcObR51+4DroWC6dRFLIWPRCUM7ecLUjT2
E7wp/IceTLT1CQ==
-----END CERTIFICATE-----
