Certificate:
    Data:
        Version: 3 (0x2)
        Serial Number: 268435680 (0x100000e0)
    Signature Algorithm: sha256WithRSAEncryption
        Issuer: C=DE, ST=Hessen, O=privacyidea, CN=CA001
        Validity
            Not Before: Jun 14 08:17:45 2018 GMT
            Not After : Jun 14 08:17:45 2019 GMT
        Subject: C=DE, ST=Hessen, O=privacyidea, CN=requester.localdomain
        Subject Public Key Info:
            Public Key Algorithm: rsaEncryption
                Public-Key: (2048 bit)
                Modulus:
                    00:cd:be:14:4f:fa:ce:01:3f:42:22:1b:1d:9c:af:
                    dd:92:d2:7f:db:6c:b7:3e:39:43:43:6b:13:03:f1:
                    05:f4:07:74:bc:76:69:28:0b:af:19:8e:d7:fc:e3:
                    cd:c6:58:f2:ca:7f:08:6d:53:fc:07:02:44:24:c6:
                    b4:34:4c:8c:04:fe:33:0e:40:e2:20:ba:02:73:5a:
                    f7:f5:4f:63:6e:cc:c6:b6:df:54:1d:37:39:7d:51:
                    36:26:5f:bd:dc:3f:a8:8b:6b:a2:ae:b6:9d:d6:21:
                    e7:df:41:b8:7a:28:2a:68:48:ca:a8:2d:ed:e1:e9:
                    46:5e:5a:72:6d:b4:84:38:87:91:fd:94:11:0b:28:
                    84:c6:c2:2f:2a:fb:01:f9:36:7a:09:75:d1:33:88:
                    3c:73:41:5b:c8:bf:94:89:70:a1:f0:c0:b9:2e:50:
                    53:1e:b1:17:64:69:f4:2d:81:e0:a9:0d:0e:32:e9:
                    ba:55:8a:85:f1:1b:6f:49:79:b4:7f:88:c3:0d:3e:
                    54:88:9b:3d:1f:38:8c:04:f3:ee:6a:63:2b:f5:c6:
                    db:b4:83:aa:c4:78:41:3a:7d:4b:e1:c8:3e:71:ca:
                    1b:61:59:ea:c6:c4:ca:32:5e:c9:e9:bf:12:29:e6:
                    c6:c3:63:fe:a0:55:da:7a:f1:60:98:4d:26:ed:fa:
                    70:2d
                Exponent: 65537 (0x10001)
        X509v3 extensions:
            X509v3 Key Usage: 
                Digital Signature, Key Encipherment
            X509v3 Basic Constraints: 
                CA:FALSE
            Netscape Cert Type: 
                SSL Server
            Netscape Comment: 
                OpenSSL Generated Server Certificate
            X509v3 Subject Key Identifier: 
                53:3F:ED:5D:09:07:B3:65:7B:AB:45:C9:24:5B:09:77:80:0A:96:ED
            X509v3 Authority Key Identifier: 
                keyid:F4:A7:C0:CC:91:46:AF:64:F3:91:F2:27:F8:C8:B2:6F:8A:87:32:73
                DirName:/C=DE/ST=Hessen/O=privacyidea/CN=CA001
                serial:FB:C8:EB:AC:83:CD:12:07

            X509v3 Extended Key Usage: 
                TLS Web Server Authentication
    Signature Algorithm: sha256WithRSAEncryption
         29:83:a6:ca:4b:36:85:cb:3e:1d:2d:0b:a6:3e:c1:fc:05:83:
         75:b1:bd:18:6c:01:ba:76:53:bc:e4:76:35:7f:ec:86:32:fe:
         91:5e:0a:2b:23:ab:fd:1f:16:52:50:4d:a8:06:6f:70:0b:ee:
         f6:5c:4c:51:cc:95:a6:81:54:66:fc:6f:3b:c4:4f:49:e5:aa:
         14:1b:4c:bb:4e:e8:2d:11:62:32:78:be:1c:fe:30:49:11:3e:
         3c:8f:3a:7d:7f:d5:76:71:8a:71:9f:35:5e:2a:9a:7b:ad:3b:
         8a:85:31:46:8c:4b:94:b8:19:34:e3:8c:cc:03:35:f7:96:f7:
         3a:1d:5e:a5:08:a1:a7:36:6c:dc:32:89:2c:41:e3:fa:66:01:
         72:35:e0:19:c4:fc:4b:c4:13:1a:06:b1:04:37:11:dc:c0:86:
         82:2a:df:1c:1f:20:68:2a:20:92:a1:21:6c:f0:03:b6:69:2b:
         42:2b:52:27:e0:94:b8:97:5a:7c:2b:01:df:f8:97:a4:7d:db:
         36:69:bc:63:10:71:46:dc:07:d5:68:8b:ef:78:a2:e1:a5:7a:
         0b:e0:17:db:a5:75:51:d1:b0:91:ab:1a:5b:a8:61:1f:e7:47:
         fc:68:b8:c9:a2:65:0d:05:83:c0:75:47:39:da:e1:7e:07:de:
         37:2d:87:ac
-----BEGIN CERTIFICATE-----
MIIEJjCCAw6gAwIBAgIEEAAA4DANBgkqhkiG9w0BAQsFADBEMQswCQYDVQQGEwJE
RTEPMA0GA1UECAwGSGVzc2VuMRQwEgYDVQQKDAtwcml2YWN5aWRlYTEOMAwGA1UE
AwwFQ0EwMDEwHhcNMTgwNjE0MDgxNzQ1WhcNMTkwNjE0MDgxNzQ1WjBUMQswCQYD
VQQGEwJERTEPMA0GA1UECAwGSGVzc2VuMRQwEgYDVQQKDAtwcml2YWN5aWRlYTEe
MBwGA1UEAwwVcmVxdWVzdGVyLmxvY2FsZG9tYWluMIIBIjANBgkqhkiG9w0BAQEF
AAOCAQ8AMIIBCgKCAQEAzb4UT/rOAT9CIhsdnK/dktJ/22y3PjlDQ2sTA/EF9Ad0
vHZpKAuvGY7X/OPNxljyyn8IbVP8BwJEJMa0NEyMBP4zDkDiILoCc1r39U9jbszG
tt9UHTc5fVE2Jl+93D+oi2uirrad1iHn30G4eigqaEjKqC3t4elGXlpybbSEOIeR
/ZQRCyiExsIvKvsB+TZ6CXXRM4g8c0FbyL+UiXCh8MC5LlBTHrEXZGn0LYHgqQ0O
Mum6VYqF8RtvSXm0f4jDDT5UiJs9HziMBPPuamMr9cbbtIOqxHhBOn1L4cg+ccob
YVnqxsTKMl7J6b8SKebGw2P+oFXaevFgmE0m7fpwLQIDAQABo4IBDjCCAQowCwYD
VR0PBAQDAgWgMAkGA1UdEwQCMAAwEQYJYIZIAYb4QgEBBAQDAgZAMDMGCWCGSAGG
+EIBDQQmFiRPcGVuU1NMIEdlbmVyYXRlZCBTZXJ2ZXIgQ2VydGlmaWNhdGUwHQYD
VR0OBBYEFFM/7V0JB7Nle6tFySRbCXeACpbtMHQGA1UdIwRtMGuAFPSnwMyRRq9k
85HyJ/jIsm+KhzJzoUikRjBEMQswCQYDVQQGEwJERTEPMA0GA1UECAwGSGVzc2Vu
MRQwEgYDVQQKDAtwcml2YWN5aWRlYTEOMAwGA1UEAwwFQ0EwMDGCCQD7yOusg80S
BzATBgNVHSUEDDAKBggrBgEFBQcDATANBgkqhkiG9w0BAQsFAAOCAQEAKYOmyks2
hcs+HS0Lpj7B/AWDdbG9GGwBunZTvOR2NX/shjL+kV4KKyOr/R8WUlBNqAZvcAvu
9lxMUcyVpoFUZvxvO8RPSeWqFBtMu07oLRFiMni+HP4wSRE+PI86fX/VdnGKcZ81
Xiqae607ioUxRoxLlLgZNOOMzAM195b3Oh1epQihpzZs3DKJLEHj+mYBcjXgGcT8
S8QTGgaxBDcR3MCGgirfHB8gaCogkqEhbPADtmkrQitSJ+CUuJdafCsB3/iXpH3b
Nmm8YxBxRtwH1WiL73ii4aV6C+AX26V1UdGwkasaW6hhH+dH/Gi4yaJlDQWDwHVH
OdrhfgfeNy2HrA==
-----END CERTIFICATE-----
