Certificate:
    Data:
        Version: 3 (0x2)
        Serial Number: 268435666 (0x100000d2)
    Signature Algorithm: sha256WithRSAEncryption
        Issuer: C=DE, ST=Hessen, O=privacyidea, CN=CA001
        Validity
            Not Before: Jul 31 12:28:13 2018 GMT
            Not After : Jul 31 12:28:13 2019 GMT
        Subject: C=DE, ST=Hessen, O=privacyidea, CN=usercert
        Subject Public Key Info:
            Public Key Algorithm: rsaEncryption
                Public-Key: (2048 bit)
                Modulus:
                    00:dc:2f:d1:5f:29:97:d4:7c:c3:53:c8:30:bd:4b:
                    67:70:2c:24:6b:b8:5e:eb:21:7a:48:12:56:7c:81:
                    5c:48:75:b6:68:eb:f6:f2:98:4e:50:51:d1:7f:6c:
                    73:f3:0a:a7:ae:be:48:5e:e5:d6:e1:d9:2a:7c:32:
                    6e:4e:fd:08:f6:5a:54:49:23:73:c3:b9:07:18:d1:
                    ef:b3:ac:f8:8a:dc:94:96:a4:90:3a:8e:74:df:e6:
                    0d:37:1b:bd:5b:b7:25:1a:56:39:da:6f:91:aa:5e:
                    1c:74:f3:f9:7c:14:01:83:12:65:76:c7:bb:fe:36:
                    5b:95:e9:72:65:83:ed:3e:98:30:71:fa:87:dd:a3:
                    36:5a:30:03:2e:26:e0:61:d1:bf:02:3f:b6:06:1f:
                    4a:89:28:1c:5c:a2:ff:4e:be:94:e6:8c:e0:da:82:
                    f1:9d:29:32:48:30:73:b4:04:f6:42:1e:be:f7:e2:
                    32:32:27:3c:9d:89:2f:70:3e:85:9a:6f:5c:c5:09:
                    c0:8c:32:2f:72:22:c9:d2:95:1f:b6:ac:72:60:72:
                    b7:82:4d:6b:ce:5b:e3:00:d0:d2:2f:58:c6:e0:10:
                    e5:51:ca:4d:3b:2e:e6:7e:ab:84:d6:56:f1:93:35:
                    a0:93:64:26:81:75:2f:91:b5:16:06:38:0b:db:cc:
                    2d:07
                Exponent: 65537 (0x10001)
        X509v3 extensions:
            X509v3 Key Usage: 
                Digital Signature, Key Encipherment
            X509v3 Basic Constraints: 
                CA:FALSE
            Netscape Cert Type: 
                SSL Server
            Netscape Comment: 
                OpenSSL Generated Server Certificate
            X509v3 Subject Key Identifier: 
                FC:14:D1:F0:4B:8D:00:90:F2:F5:B8:71:9E:4E:97:C3:92:54:AD:0B
            X509v3 Authority Key Identifier: 
                keyid:F4:A7:C0:CC:91:46:AF:64:F3:91:F2:27:F8:C8:B2:6F:8A:87:32:73
                DirName:/C=DE/ST=Hessen/O=privacyidea/CN=CA001
                serial:FB:C8:EB:AC:83:CD:12:07

            X509v3 Extended Key Usage: 
                TLS Web Server Authentication
    Signature Algorithm: sha256WithRSAEncryption
         02:73:8f:be:d6:2f:23:cf:eb:aa:ef:db:5a:50:a2:a0:78:02:
         6b:be:91:2e:49:02:fa:00:c4:7a:ab:de:15:25:66:b2:02:ea:
         c9:bd:2e:8b:ea:ea:7f:0b:62:b8:74:42:f1:c5:f4:ef:4a:a9:
         05:07:f0:a3:7b:94:5a:9f:9b:26:ed:b3:89:08:ec:87:9d:96:
         54:57:17:d8:a2:c1:3f:34:2f:44:b7:fc:20:4b:47:fd:a1:47:
         ce:73:ae:4c:7c:ed:d4:9d:aa:74:27:c3:bd:10:5a:72:ac:24:
         24:79:b2:bb:f4:30:be:c3:1f:b7:e5:16:df:86:4f:49:a9:f1:
         38:c9:f2:f4:84:92:87:d8:39:62:f1:e0:ab:fd:df:cf:7c:bc:
         8e:a0:4d:c9:43:c7:3d:f3:38:95:55:43:aa:a9:8d:7f:3d:7c:
         db:0f:39:61:c9:21:a3:56:ee:13:01:f3:67:a0:83:8e:76:43:
         48:0d:cc:a1:da:14:c3:2d:6e:40:e4:a6:82:73:90:ba:30:ca:
         a5:00:73:2d:36:02:06:09:89:d8:81:45:c5:81:b2:dc:8c:f7:
         40:9c:c5:24:01:f3:92:02:54:cd:6b:0b:21:6a:fb:7b:e7:71:
         a0:35:ae:39:0f:d3:79:39:22:cf:f8:48:34:d7:ed:0f:2c:48:
         d7:31:c7:3d
-----BEGIN CERTIFICATE-----
MIIEGTCCAwGgAwIBAgIEEAAA0jANBgkqhkiG9w0BAQsFADBEMQswCQYDVQQGEwJE
RTEPMA0GA1UECAwGSGVzc2VuMRQwEgYDVQQKDAtwcml2YWN5aWRlYTEOMAwGA1UE
AwwFQ0EwMDEwHhcNMTgwNzMxMTIyODEzWhcNMTkwNzMxMTIyODEzWjBHMQswCQYD
VQQGEwJERTEPMA0GA1UECAwGSGVzc2VuMRQwEgYDVQQKDAtwcml2YWN5aWRlYTER
MA8GA1UEAwwIdXNlcmNlcnQwggEiMA0GCSqGSIb3DQEBAQUAA4IBDwAwggEKAoIB
AQDcL9FfKZfUfMNTyDC9S2dwLCRruF7rIXpIElZ8gVxIdbZo6/bymE5QUdF/bHPz
Cqeuvkhe5dbh2Sp8Mm5O/Qj2WlRJI3PDuQcY0e+zrPiK3JSWpJA6jnTf5g03G71b
tyUaVjnab5GqXhx08/l8FAGDEmV2x7v+NluV6XJlg+0+mDBx+ofdozZaMAMuJuBh
0b8CP7YGH0qJKBxcov9OvpTmjODagvGdKTJIMHO0BPZCHr734jIyJzydiS9wPoWa
b1zFCcCMMi9yIsnSlR+2rHJgcreCTWvOW+MA0NIvWMbgEOVRyk07LuZ+q4TWVvGT
NaCTZCaBdS+RtRYGOAvbzC0HAgMBAAGjggEOMIIBCjALBgNVHQ8EBAMCBaAwCQYD
VR0TBAIwADARBglghkgBhvhCAQEEBAMCBkAwMwYJYIZIAYb4QgENBCYWJE9wZW5T
U0wgR2VuZXJhdGVkIFNlcnZlciBDZXJ0aWZpY2F0ZTAdBgNVHQ4EFgQU/BTR8EuN
AJDy9bhxnk6Xw5JUrQswdAYDVR0jBG0wa4AU9KfAzJFGr2TzkfIn+Miyb4qHMnOh
SKRGMEQxCzAJBgNVBAYTAkRFMQ8wDQYDVQQIDAZIZXNzZW4xFDASBgNVBAoMC3By
aXZhY3lpZGVhMQ4wDAYDVQQDDAVDQTAwMYIJAPvI66yDzRIHMBMGA1UdJQQMMAoG
CCsGAQUFBwMBMA0GCSqGSIb3DQEBCwUAA4IBAQACc4++1i8jz+uq79taUKKgeAJr
vpEuSQL6AMR6q94VJWayAurJvS6L6up/C2K4dELxxfTvSqkFB/Cje5Ran5sm7bOJ
COyHnZZUVxfYosE/NC9Et/wgS0f9oUfOc65MfO3Unap0J8O9EFpyrCQkebK79DC+
wx+35Rbfhk9JqfE4yfL0hJKH2Dli8eCr/d/PfLyOoE3JQ8c98ziVVUOqqY1/PXzb
DzlhySGjVu4TAfNnoIOOdkNIDcyh2hTDLW5A5KaCc5C6MMqlAHMtNgIGCYnYgUXF
gbLcjPdAnMUkAfOSAlTNawshavt753GgNa45D9N5OSLP+Eg01+0PLEjXMcc9
-----END CERTIFICATE-----
