Certificate:
    Data:
        Version: 3 (0x2)
        Serial Number: 268435667 (0x100000d3)
    Signature Algorithm: sha256WithRSAEncryption
        Issuer: C=DE, ST=Hessen, O=privacyidea, CN=CA001
        Validity
            Not Before: Aug 16 14:14:01 2018 GMT
            Not After : Aug 16 14:14:01 2019 GMT
        Subject: CN=Steve Test/emailAddress=steve@openssl.org
        Subject Public Key Info:
            Public Key Algorithm: rsaEncryption
                Public-Key: (2048 bit)
                Modulus:
                    00:d2:81:89:20:51:48:0f:73:f4:11:32:24:d5:1f:
                    1c:fd:5c:f5:b6:e6:c5:f0:52:81:dc:d2:af:66:4a:
                    7c:93:31:61:5c:af:d1:6d:06:70:03:60:7c:72:0c:
                    88:dd:49:cd:9e:02:6c:d2:5a:d7:53:0f:f3:da:be:
                    69:64:b5:0f:0c:00:e3:b3:50:47:a3:b3:9b:ba:13:
                    50:d6:58:5a:4b:ab:39:e0:11:ca:0a:27:67:03:78:
                    22:66:6d:92:1e:1b:5c:49:ae:e6:6b:d1:8e:3b:9d:
                    06:d3:c6:ac:4d:53:43:10:ab:e8:96:c1:87:82:97:
                    99:8f:20:d3:99:12:37:31:84:e1:8a:ff:29:03:5f:
                    22:90:3e:7f:9b:e0:20:c1:ad:dc:ae:4c:39:1a:31:
                    96:17:02:8c:b2:d9:b4:0d:20:12:9b:7d:86:54:fd:
                    33:fd:c1:2a:62:46:f8:60:96:cf:6e:01:6f:22:df:
                    13:47:e7:97:ec:05:72:23:a3:62:f8:fa:ef:ac:9c:
                    72:f0:37:cb:2f:37:cf:90:a8:27:51:86:c6:d7:78:
                    08:8f:7e:25:a2:15:70:a2:fb:1c:b6:15:5e:a0:97:
                    8b:81:4c:09:28:8a:27:3b:94:bc:71:db:5b:71:37:
                    9a:2b:16:e0:6f:b5:c9:f5:4b:4f:20:ba:65:cf:af:
                    ad:ad
                Exponent: 65537 (0x10001)
        X509v3 extensions:
            X509v3 Key Usage: 
                Digital Signature, Key Encipherment
            X509v3 Basic Constraints: 
                CA:FALSE
            Netscape Cert Type: 
                SSL Server
            Netscape Comment: 
                OpenSSL Generated Server Certificate
            X509v3 Subject Key Identifier: 
                E5:25:6D:3E:AF:0D:DD:3F:4C:F2:45:19:39:D5:14:DB:7E:9C:C0:AD
            X509v3 Authority Key Identifier: 
                keyid:F4:A7:C0:CC:91:46:AF:64:F3:91:F2:27:F8:C8:B2:6F:8A:87:32:73
                DirName:/C=DE/ST=Hessen/O=privacyidea/CN=CA001
                serial:FB:C8:EB:AC:83:CD:12:07

            X509v3 Extended Key Usage: 
                TLS Web Server Authentication
    Signature Algorithm: sha256WithRSAEncryption
         54:16:13:b4:c8:63:62:24:12:14:dd:21:e9:e6:b5:42:71:7d:
         22:ed:14:ce:b4:6b:0a:d5:2a:37:29:67:c2:30:2e:e5:14:08:
         57:1d:3f:c4:d9:cf:2d:5a:10:5b:46:2c:da:a3:e2:f1:bc:f1:
         e4:b6:ed:bc:40:14:79:d6:d4:ab:c6:60:43:41:33:af:51:a3:
         ce:b6:c9:e3:d0:59:4b:ef:7c:39:ad:09:29:46:38:e5:e1:ce:
         1f:82:2b:6d:f4:79:e2:95:5d:db:4a:66:44:af:d1:4d:70:f5:
         6a:ad:84:a0:ac:dd:8a:1a:b3:76:8d:58:56:81:f1:fb:b2:98:
         e4:d4:9f:ed:0d:ba:40:98:5a:e6:a7:ae:81:dc:47:09:b8:09:
         bf:aa:a6:71:7d:39:0b:26:ba:85:59:d8:65:25:b6:de:d8:bc:
         15:45:c3:43:82:03:b3:d1:69:f1:51:f7:c2:64:22:3e:c8:30:
         e9:fd:37:d4:18:90:5d:22:b2:6f:f6:ee:b0:ce:b6:37:c5:c9:
         69:8e:a0:cc:35:37:0c:4c:45:b4:44:f3:ae:11:b2:c4:f2:27:
         9f:76:d8:1b:b3:f2:50:39:15:50:5c:2f:a5:e6:3b:cd:39:29:
         47:20:89:57:1e:33:a7:8d:50:5d:27:6a:d0:19:05:1d:db:92:
         21:c0:94:12
-----BEGIN CERTIFICATE-----
MIIECTCCAvGgAwIBAgIEEAAA0zANBgkqhkiG9w0BAQsFADBEMQswCQYDVQQGEwJE
RTEPMA0GA1UECAwGSGVzc2VuMRQwEgYDVQQKDAtwcml2YWN5aWRlYTEOMAwGA1UE
AwwFQ0EwMDEwHhcNMTgwODE2MTQxNDAxWhcNMTkwODE2MTQxNDAxWjA3MRMwEQYD
VQQDDApTdGV2ZSBUZXN0MSAwHgYJKoZIhvcNAQkBFhFzdGV2ZUBvcGVuc3NsLm9y
ZzCCASIwDQYJKoZIhvcNAQEBBQADggEPADCCAQoCggEBANKBiSBRSA9z9BEyJNUf
HP1c9bbmxfBSgdzSr2ZKfJMxYVyv0W0GcANgfHIMiN1JzZ4CbNJa11MP89q+aWS1
DwwA47NQR6Ozm7oTUNZYWkurOeARygonZwN4ImZtkh4bXEmu5mvRjjudBtPGrE1T
QxCr6JbBh4KXmY8g05kSNzGE4Yr/KQNfIpA+f5vgIMGt3K5MORoxlhcCjLLZtA0g
Ept9hlT9M/3BKmJG+GCWz24BbyLfE0fnl+wFciOjYvj676yccvA3yy83z5CoJ1GG
xtd4CI9+JaIVcKL7HLYVXqCXi4FMCSiKJzuUvHHbW3E3misW4G+1yfVLTyC6Zc+v
ra0CAwEAAaOCAQ4wggEKMAsGA1UdDwQEAwIFoDAJBgNVHRMEAjAAMBEGCWCGSAGG
+EIBAQQEAwIGQDAzBglghkgBhvhCAQ0EJhYkT3BlblNTTCBHZW5lcmF0ZWQgU2Vy
dmVyIENlcnRpZmljYXRlMB0GA1UdDgQWBBTlJW0+rw3dP0zyRRk51RTbfpzArTB0
BgNVHSMEbTBrgBT0p8DMkUavZPOR8if4yLJviocyc6FIpEYwRDELMAkGA1UEBhMC
REUxDzANBgNVBAgMBkhlc3NlbjEUMBIGA1UECgwLcHJpdmFjeWlkZWExDjAMBgNV
BAMMBUNBMDAxggkA+8jrrIPNEgcwEwYDVR0lBAwwCgYIKwYBBQUHAwEwDQYJKoZI
hvcNAQELBQADggEBAFQWE7TIY2IkEhTdIenmtUJxfSLtFM60awrVKjcpZ8IwLuUU
CFcdP8TZzy1aEFtGLNqj4vG88eS27bxAFHnW1KvGYENBM69Ro862yePQWUvvfDmt
CSlGOOXhzh+CK230eeKVXdtKZkSv0U1w9WqthKCs3Yoas3aNWFaB8fuymOTUn+0N
ukCYWuanroHcRwm4Cb+qpnF9OQsmuoVZ2GUltt7YvBVFw0OCA7PRafFR98JkIj7I
MOn9N9QYkF0ism/27rDOtjfFyWmOoMw1NwxMRbRE864RssTyJ5922Buz8lA5FVBc
L6XmO805KUcgiVceM6eNUF0natAZBR3bkiHAlBI=
-----END CERTIFICATE-----
