Certificate:
    Data:
        Version: 3 (0x2)
        Serial Number: 268435678 (0x100000de)
    Signature Algorithm: sha256WithRSAEncryption
        Issuer: C=DE, ST=Hessen, O=privacyidea, CN=CA001
        Validity
            Not Before: Jun 14 15:08:50 2018 GMT
            Not After : Jun 14 15:08:50 2019 GMT
        Subject: OU=realm1, CN=cornelius/emailAddress=user@localhost.localdomain
        Subject Public Key Info:
            Public Key Algorithm: rsaEncryption
                Public-Key: (2048 bit)
                Modulus:
                    00:b6:5a:51:2f:b7:32:07:eb:66:a2:b0:1d:91:a3:
                    4b:10:83:1f:df:cd:11:32:39:71:81:0a:6f:45:6c:
                    e4:13:b6:86:5c:94:43:e8:08:00:83:20:e8:56:16:
                    b2:2f:91:44:58:65:94:4b:14:5a:f2:94:4a:51:8d:
                    8f:37:7c:99:6e:ea:6b:f7:cf:8b:cd:d8:41:a3:19:
                    e9:8b:48:72:04:0b:aa:29:b9:b3:e6:77:7a:23:43:
                    c4:65:04:59:de:16:42:a5:35:fb:18:88:d9:03:fb:
                    8f:38:a2:e0:48:9f:c4:13:41:cf:79:47:03:89:66:
                    56:a8:74:bb:17:2b:61:3e:9a:95:15:0b:21:07:3c:
                    09:f8:41:b5:43:1c:b1:36:67:90:f1:01:e3:43:8b:
                    2f:b9:c6:80:7c:8a:a5:bf:87:14:ca:be:fd:9c:bb:
                    58:8b:16:cf:8c:6f:b5:2f:48:b4:2c:38:b0:95:16:
                    70:ee:f6:26:41:ec:f4:6e:42:dc:65:8d:ab:98:d8:
                    6e:93:8a:de:f4:03:a3:a4:d5:1b:77:e8:c7:d8:9e:
                    df:1f:32:23:36:88:13:77:2a:a9:2f:d3:82:30:29:
                    9a:6d:21:00:c3:e2:c5:fd:87:02:73:9c:56:30:a0:
                    ff:70:41:57:35:9c:1c:59:5d:cd:03:71:b6:cd:0b:
                    ee:65
                Exponent: 65537 (0x10001)
        X509v3 extensions:
            X509v3 Key Usage: 
                Digital Signature, Key Encipherment
            X509v3 Basic Constraints: 
                CA:FALSE
            Netscape Cert Type: 
                SSL Server
            Netscape Comment: 
                OpenSSL Generated Server Certificate
            X509v3 Subject Key Identifier: 
                94:3C:92:A7:18:B0:70:24:DC:08:64:14:7F:BC:19:A3:5A:75:3A:B6
            X509v3 Authority Key Identifier: 
                keyid:F4:A7:C0:CC:91:46:AF:64:F3:91:F2:27:F8:C8:B2:6F:8A:87:32:73
                DirName:/C=DE/ST=Hessen/O=privacyidea/CN=CA001
                serial:FB:C8:EB:AC:83:CD:12:07

            X509v3 Extended Key Usage: 
                TLS Web Server Authentication
    Signature Algorithm: sha256WithRSAEncryption
         6c:44:80:51:e6:ba:16:db:27:9a:8f:6d:5c:3d:31:d6:2a:3e:
         d1:0e:ca:04:82:20:f2:92:91:62:5f:4d:e6:16:a2:f7:0d:fe:
         c2:c5:4e:8f:80:83:eb:e7:a5:f3:67:9d:f9:d8:7d:16:37:ac:
         da:c4:9d:71:74:35:85:23:02:dd:a2:e2:08:d2:c0:26:71:8f:
         f7:6a:26:62:9f:6e:e2:b7:e7:ad:04:dc:a8:70:c5:f6:33:68:
         d7:47:04:ff:19:9d:bd:1c:06:6b:3c:17:9d:0d:de:5b:ac:34:
         98:37:2b:95:65:2e:70:cc:b2:97:cb:1e:0d:7a:8d:ab:c4:a8:
         5c:a6:20:5a:fd:db:8a:fb:d4:12:04:7c:4c:d5:74:3c:f4:61:
         3f:0e:c8:60:bb:ce:ec:be:3f:e3:40:63:71:af:08:89:6a:05:
         94:2b:4c:b2:ba:b3:ed:01:8d:93:e1:3b:35:2c:b5:e5:77:ad:
         00:e0:55:a5:76:12:0c:1b:7b:6c:c6:66:15:0e:e1:55:0e:05:
         7f:44:01:d2:3c:54:a6:bd:45:b6:14:5e:93:92:66:18:c5:9d:
         74:a2:8b:35:f1:74:75:4a:e1:0f:d7:22:4b:40:81:d0:35:f8:
         66:66:05:21:03:c0:c8:f9:9d:aa:b5:03:74:2c:d0:75:28:8a:
         e0:ef:b2:94
-----BEGIN CERTIFICATE-----
MIIEIjCCAwqgAwIBAgIEEAAA3jANBgkqhkiG9w0BAQsFADBEMQswCQYDVQQGEwJE
RTEPMA0GA1UECAwGSGVzc2VuMRQwEgYDVQQKDAtwcml2YWN5aWRlYTEOMAwGA1UE
AwwFQ0EwMDEwHhcNMTgwNjE0MTUwODUwWhcNMTkwNjE0MTUwODUwWjBQMQ8wDQYD
VQQLDAZyZWFsbTExEjAQBgNVBAMMCWNvcm5lbGl1czEpMCcGCSqGSIb3DQEJARYa
dXNlckBsb2NhbGhvc3QubG9jYWxkb21haW4wggEiMA0GCSqGSIb3DQEBAQUAA4IB
DwAwggEKAoIBAQC2WlEvtzIH62aisB2Ro0sQgx/fzREyOXGBCm9FbOQTtoZclEPo
CACDIOhWFrIvkURYZZRLFFrylEpRjY83fJlu6mv3z4vN2EGjGemLSHIEC6opubPm
d3ojQ8RlBFneFkKlNfsYiNkD+484ouBIn8QTQc95RwOJZlaodLsXK2E+mpUVCyEH
PAn4QbVDHLE2Z5DxAeNDiy+5xoB8iqW/hxTKvv2cu1iLFs+Mb7UvSLQsOLCVFnDu
9iZB7PRuQtxljauY2G6Tit70A6Ok1Rt36MfYnt8fMiM2iBN3Kqkv04IwKZptIQDD
4sX9hwJznFYwoP9wQVc1nBxZXc0DcbbNC+5lAgMBAAGjggEOMIIBCjALBgNVHQ8E
BAMCBaAwCQYDVR0TBAIwADARBglghkgBhvhCAQEEBAMCBkAwMwYJYIZIAYb4QgEN
BCYWJE9wZW5TU0wgR2VuZXJhdGVkIFNlcnZlciBDZXJ0aWZpY2F0ZTAdBgNVHQ4E
FgQUlDySpxiwcCTcCGQUf7wZo1p1OrYwdAYDVR0jBG0wa4AU9KfAzJFGr2TzkfIn
+Miyb4qHMnOhSKRGMEQxCzAJBgNVBAYTAkRFMQ8wDQYDVQQIDAZIZXNzZW4xFDAS
BgNVBAoMC3ByaXZhY3lpZGVhMQ4wDAYDVQQDDAVDQTAwMYIJAPvI66yDzRIHMBMG
A1UdJQQMMAoGCCsGAQUFBwMBMA0GCSqGSIb3DQEBCwUAA4IBAQBsRIBR5roW2yea
j21cPTHWKj7RDsoEgiDykpFiX03mFqL3Df7CxU6PgIPr56XzZ5352H0WN6zaxJ1x
dDWFIwLdouII0sAmcY/3aiZin27it+etBNyocMX2M2jXRwT/GZ29HAZrPBedDd5b
rDSYNyuVZS5wzLKXyx4Neo2rxKhcpiBa/duK+9QSBHxM1XQ89GE/Dshgu87svj/j
QGNxrwiJagWUK0yyurPtAY2T4Ts1LLXld60A4FWldhIMG3tsxmYVDuFVDgV/RAHS
PFSmvUW2FF6TkmYYxZ10oos18XR1SuEP1yJLQIHQNfhmZgUhA8DI+Z2qtQN0LNB1
KIrg77KU
-----END CERTIFICATE-----
