Certificate:
    Data:
        Version: 3 (0x2)
        Serial Number: 268435675 (0x100000db)
    Signature Algorithm: sha256WithRSAEncryption
        Issuer: C=DE, ST=Hessen, O=privacyidea, CN=CA001
        Validity
            Not Before: Jul 30 14:38:37 2018 GMT
            Not After : Jul 30 14:38:37 2019 GMT
        Subject: CN=Steve Test/emailAddress=steve@openssl.org
        Subject Public Key Info:
            Public Key Algorithm: rsaEncryption
                Public-Key: (2048 bit)
                Modulus:
                    00:d2:81:89:20:51:48:0f:73:f4:11:32:24:d5:1f:
                    1c:fd:5c:f5:b6:e6:c5:f0:52:81:dc:d2:af:66:4a:
                    7c:93:31:61:5c:af:d1:6d:06:70:03:60:7c:72:0c:
                    88:dd:49:cd:9e:02:6c:d2:5a:d7:53:0f:f3:da:be:
                    69:64:b5:0f:0c:00:e3:b3:50:47:a3:b3:9b:ba:13:
                    50:d6:58:5a:4b:ab:39:e0:11:ca:0a:27:67:03:78:
                    22:66:6d:92:1e:1b:5c:49:ae:e6:6b:d1:8e:3b:9d:
                    06:d3:c6:ac:4d:53:43:10:ab:e8:96:c1:87:82:97:
                    99:8f:20:d3:99:12:37:31:84:e1:8a:ff:29:03:5f:
                    22:90:3e:7f:9b:e0:20:c1:ad:dc:ae:4c:39:1a:31:
                    96:17:02:8c:b2:d9:b4:0d:20:12:9b:7d:86:54:fd:
                    33:fd:c1:2a:62:46:f8:60:96:cf:6e:01:6f:22:df:
                    13:47:e7:97:ec:05:72:23:a3:62:f8:fa:ef:ac:9c:
                    72:f0:37:cb:2f:37:cf:90:a8:27:51:86:c6:d7:78:
                    08:8f:7e:25:a2:15:70:a2:fb:1c:b6:15:5e:a0:97:
                    8b:81:4c:09:28:8a:27:3b:94:bc:71:db:5b:71:37:
                    9a:2b:16:e0:6f:b5:c9:f5:4b:4f:20:ba:65:cf:af:
                    ad:ad
                Exponent: 65537 (0x10001)
        X509v3 extensions:
            X509v3 Key Usage: 
                Digital Signature, Key Encipherment
            X509v3 Basic Constraints: 
                CA:FALSE
            Netscape Cert Type: 
                SSL Server
            Netscape Comment: 
                OpenSSL Generated Server Certificate
            X509v3 Subject Key Identifier: 
                E5:25:6D:3E:AF:0D:DD:3F:4C:F2:45:19:39:D5:14:DB:7E:9C:C0:AD
            X509v3 Authority Key Identifier: 
                keyid:F4:A7:C0:CC:91:46:AF:64:F3:91:F2:27:F8:C8:B2:6F:8A:87:32:73
                DirName:/C=DE/ST=Hessen/O=privacyidea/CN=CA001
                serial:FB:C8:EB:AC:83:CD:12:07

            X509v3 Extended Key Usage: 
                TLS Web Server Authentication
    Signature Algorithm: sha256WithRSAEncryption
         45:9d:d9:45:3e:8a:72:46:09:e7:a4:3b:6d:80:7e:e1:4b:f8:
         13:3f:68:e4:f2:ad:6b:5d:2b:e6:4c:df:74:83:18:e9:a4:75:
         04:6d:33:86:8e:42:38:3b:ff:a6:5a:e5:50:58:e3:4f:04:48:
         31:69:58:b4:41:63:d9:df:a0:2c:c9:49:0c:eb:c4:bf:e2:a9:
         76:9f:ac:35:97:53:0f:90:a3:95:ad:8c:01:a8:4e:bc:af:44:
         ba:91:d5:93:eb:bd:07:32:1f:da:a9:80:37:f0:62:06:e3:e2:
         83:62:fd:a9:07:e7:63:0b:45:83:b0:b5:c4:d3:8f:7b:8c:56:
         8b:c4:d0:ca:91:48:f0:25:17:24:cf:fe:1d:65:9a:ef:0e:65:
         68:c4:d0:c3:2f:71:8c:48:14:23:11:54:2d:a4:45:e4:4e:38:
         7d:39:54:a7:e5:f6:2a:a9:0a:40:e0:fd:a3:92:85:ee:2e:f2:
         96:81:90:f2:9b:bc:12:0b:12:22:88:cc:6a:d1:80:88:62:ea:
         3c:48:9b:ca:b4:8f:01:9d:59:32:c0:c4:72:9d:c7:37:03:ee:
         66:1e:00:15:a3:53:81:c4:47:e3:27:70:90:73:0c:ec:d9:ab:
         40:5c:a3:fe:a7:97:5f:4d:6c:65:0d:81:67:37:79:00:35:bc:
         2a:f4:f8:26
-----BEGIN CERTIFICATE-----
MIIECTCCAvGgAwIBAgIEEAAA2zANBgkqhkiG9w0BAQsFADBEMQswCQYDVQQGEwJE
RTEPMA0GA1UECAwGSGVzc2VuMRQwEgYDVQQKDAtwcml2YWN5aWRlYTEOMAwGA1UE
AwwFQ0EwMDEwHhcNMTgwNzMwMTQzODM3WhcNMTkwNzMwMTQzODM3WjA3MRMwEQYD
VQQDDApTdGV2ZSBUZXN0MSAwHgYJKoZIhvcNAQkBFhFzdGV2ZUBvcGVuc3NsLm9y
ZzCCASIwDQYJKoZIhvcNAQEBBQADggEPADCCAQoCggEBANKBiSBRSA9z9BEyJNUf
HP1c9bbmxfBSgdzSr2ZKfJMxYVyv0W0GcANgfHIMiN1JzZ4CbNJa11MP89q+aWS1
DwwA47NQR6Ozm7oTUNZYWkurOeARygonZwN4ImZtkh4bXEmu5mvRjjudBtPGrE1T
QxCr6JbBh4KXmY8g05kSNzGE4Yr/KQNfIpA+f5vgIMGt3K5MORoxlhcCjLLZtA0g
Ept9hlT9M/3BKmJG+GCWz24BbyLfE0fnl+wFciOjYvj676yccvA3yy83z5CoJ1GG
xtd4CI9+JaIVcKL7HLYVXqCXi4FMCSiKJzuUvHHbW3E3misW4G+1yfVLTyC6Zc+v
ra0CAwEAAaOCAQ4wggEKMAsGA1UdDwQEAwIFoDAJBgNVHRMEAjAAMBEGCWCGSAGG
+EIBAQQEAwIGQDAzBglghkgBhvhCAQ0EJhYkT3BlblNTTCBHZW5lcmF0ZWQgU2Vy
dmVyIENlcnRpZmljYXRlMB0GA1UdDgQWBBTlJW0+rw3dP0zyRRk51RTbfpzArTB0
BgNVHSMEbTBrgBT0p8DMkUavZPOR8if4yLJviocyc6FIpEYwRDELMAkGA1UEBhMC
REUxDzANBgNVBAgMBkhlc3NlbjEUMBIGA1UECgwLcHJpdmFjeWlkZWExDjAMBgNV
BAMMBUNBMDAxggkA+8jrrIPNEgcwEwYDVR0lBAwwCgYIKwYBBQUHAwEwDQYJKoZI
hvcNAQELBQADggEBAEWd2UU+inJGCeekO22AfuFL+BM/aOTyrWtdK+ZM33SDGOmk
dQRtM4aOQjg7/6Za5VBY408ESDFpWLRBY9nfoCzJSQzrxL/iqXafrDWXUw+Qo5Wt
jAGoTryvRLqR1ZPrvQcyH9qpgDfwYgbj4oNi/akH52MLRYOwtcTTj3uMVovE0MqR
SPAlFyTP/h1lmu8OZWjE0MMvcYxIFCMRVC2kReROOH05VKfl9iqpCkDg/aOShe4u
8paBkPKbvBILEiKIzGrRgIhi6jxIm8q0jwGdWTLAxHKdxzcD7mYeABWjU4HER+Mn
cJBzDOzZq0Bco/6nl19NbGUNgWc3eQA1vCr0+CY=
-----END CERTIFICATE-----
