Certificate:
    Data:
        Version: 3 (0x2)
        Serial Number: 268435681 (0x100000e1)
    Signature Algorithm: sha256WithRSAEncryption
        Issuer: C=DE, ST=Hessen, O=privacyidea, CN=CA001
        Validity
            Not Before: Jun  5 17:25:01 2018 GMT
            Not After : Jun 24 17:25:01 2020 GMT
        Subject: CN=Steve Test/emailAddress=steve@openssl.org
        Subject Public Key Info:
            Public Key Algorithm: rsaEncryption
                Public-Key: (2048 bit)
                Modulus:
                    00:d2:81:89:20:51:48:0f:73:f4:11:32:24:d5:1f:
                    1c:fd:5c:f5:b6:e6:c5:f0:52:81:dc:d2:af:66:4a:
                    7c:93:31:61:5c:af:d1:6d:06:70:03:60:7c:72:0c:
                    88:dd:49:cd:9e:02:6c:d2:5a:d7:53:0f:f3:da:be:
                    69:64:b5:0f:0c:00:e3:b3:50:47:a3:b3:9b:ba:13:
                    50:d6:58:5a:4b:ab:39:e0:11:ca:0a:27:67:03:78:
                    22:66:6d:92:1e:1b:5c:49:ae:e6:6b:d1:8e:3b:9d:
                    06:d3:c6:ac:4d:53:43:10:ab:e8:96:c1:87:82:97:
                    99:8f:20:d3:99:12:37:31:84:e1:8a:ff:29:03:5f:
                    22:90:3e:7f:9b:e0:20:c1:ad:dc:ae:4c:39:1a:31:
                    96:17:02:8c:b2:d9:b4:0d:20:12:9b:7d:86:54:fd:
                    33:fd:c1:2a:62:46:f8:60:96:cf:6e:01:6f:22:df:
                    13:47:e7:97:ec:05:72:23:a3:62:f8:fa:ef:ac:9c:
                    72:f0:37:cb:2f:37:cf:90:a8:27:51:86:c6:d7:78:
                    08:8f:7e:25:a2:15:70:a2:fb:1c:b6:15:5e:a0:97:
                    8b:81:4c:09:28:8a:27:3b:94:bc:71:db:5b:71:37:
                    9a:2b:16:e0:6f:b5:c9:f5:4b:4f:20:ba:65:cf:af:
                    ad:ad
                Exponent: 65537 (0x10001)
        X509v3 extensions:
            X509v3 Key Usage: 
                Digital Signature, Key Encipherment
            X509v3 Basic Constraints: 
                CA:FALSE
            Netscape Cert Type: 
                SSL Server
            Netscape Comment: 
                OpenSSL Generated Server Certificate
            X509v3 Subject Key Identifier: 
                E5:25:6D:3E:AF:0D:DD:3F:4C:F2:45:19:39:D5:14:DB:7E:9C:C0:AD
            X509v3 Authority Key Identifier: 
                keyid:F4:A7:C0:CC:91:46:AF:64:F3:91:F2:27:F8:C8:B2:6F:8A:87:32:73
                DirName:/C=DE/ST=Hessen/O=privacyidea/CN=CA001
                serial:FB:C8:EB:AC:83:CD:12:07

            X509v3 Extended Key Usage: 
                TLS Web Server Authentication
    Signature Algorithm: sha256WithRSAEncryption
         79:d5:70:ef:c3:a7:57:e6:fd:4a:46:a5:2e:0f:fc:18:5d:e8:
         ec:f7:69:b6:44:67:c8:53:ea:df:a8:dc:aa:5b:42:cb:dd:03:
         80:be:07:b5:22:a9:f6:a2:0e:22:ad:70:3e:61:af:00:ed:83:
         0b:33:7c:22:58:02:76:83:4f:69:90:02:d2:8d:07:ae:5e:61:
         bf:e8:34:c2:9f:19:6c:34:12:ac:8b:a2:d7:2c:73:f9:c4:2c:
         95:00:aa:2a:f5:11:58:fc:ab:3b:5f:9c:da:e4:7c:ad:d0:8f:
         78:a7:d9:49:55:a2:a1:2b:2d:cf:59:1b:f1:cc:b1:9f:b0:66:
         fa:2f:ad:dc:31:fa:a5:a8:56:88:4a:4e:36:46:d6:b3:e4:01:
         53:0a:c6:80:93:56:d0:58:01:cc:e4:4f:68:37:67:af:66:cd:
         f8:f3:3c:59:df:bf:39:b3:34:45:95:17:7d:a6:ce:2b:cc:dd:
         a9:d9:da:96:c9:84:bf:07:f1:81:70:13:f8:6c:09:e6:d6:88:
         dc:21:87:bb:42:3e:7c:3a:e8:8d:7a:8f:cd:0c:80:3b:aa:87:
         14:3d:86:ca:05:a9:a9:3b:87:ee:e5:8b:3d:e5:8f:08:1a:b7:
         d2:13:08:c7:3a:c2:47:14:51:62:7e:9f:8b:50:c7:15:9e:91:
         db:07:37:5b
-----BEGIN CERTIFICATE-----
MIIECTCCAvGgAwIBAgIEEAAA4TANBgkqhkiG9w0BAQsFADBEMQswCQYDVQQGEwJE
RTEPMA0GA1UECAwGSGVzc2VuMRQwEgYDVQQKDAtwcml2YWN5aWRlYTEOMAwGA1UE
AwwFQ0EwMDEwHhcNMTgwNjA1MTcyNTAxWhcNMjAwNjI0MTcyNTAxWjA3MRMwEQYD
VQQDDApTdGV2ZSBUZXN0MSAwHgYJKoZIhvcNAQkBFhFzdGV2ZUBvcGVuc3NsLm9y
ZzCCASIwDQYJKoZIhvcNAQEBBQADggEPADCCAQoCggEBANKBiSBRSA9z9BEyJNUf
HP1c9bbmxfBSgdzSr2ZKfJMxYVyv0W0GcANgfHIMiN1JzZ4CbNJa11MP89q+aWS1
DwwA47NQR6Ozm7oTUNZYWkurOeARygonZwN4ImZtkh4bXEmu5mvRjjudBtPGrE1T
QxCr6JbBh4KXmY8g05kSNzGE4Yr/KQNfIpA+f5vgIMGt3K5MORoxlhcCjLLZtA0g
Ept9hlT9M/3BKmJG+GCWz24BbyLfE0fnl+wFciOjYvj676yccvA3yy83z5CoJ1GG
xtd4CI9+JaIVcKL7HLYVXqCXi4FMCSiKJzuUvHHbW3E3misW4G+1yfVLTyC6Zc+v
ra0CAwEAAaOCAQ4wggEKMAsGA1UdDwQEAwIFoDAJBgNVHRMEAjAAMBEGCWCGSAGG
+EIBAQQEAwIGQDAzBglghkgBhvhCAQ0EJhYkT3BlblNTTCBHZW5lcmF0ZWQgU2Vy
dmVyIENlcnRpZmljYXRlMB0GA1UdDgQWBBTlJW0+rw3dP0zyRRk51RTbfpzArTB0
BgNVHSMEbTBrgBT0p8DMkUavZPOR8if4yLJviocyc6FIpEYwRDELMAkGA1UEBhMC
REUxDzANBgNVBAgMBkhlc3NlbjEUMBIGA1UECgwLcHJpdmFjeWlkZWExDjAMBgNV
BAMMBUNBMDAxggkA+8jrrIPNEgcwEwYDVR0lBAwwCgYIKwYBBQUHAwEwDQYJKoZI
hvcNAQELBQADggEBAHnVcO/Dp1fm/UpGpS4P/Bhd6Oz3abZEZ8hT6t+o3KpbQsvd
A4C+B7UiqfaiDiKtcD5hrwDtgwszfCJYAnaDT2mQAtKNB65eYb/oNMKfGWw0EqyL
otcsc/nELJUAqir1EVj8qztfnNrkfK3Qj3in2UlVoqErLc9ZG/HMsZ+wZvovrdwx
+qWoVohKTjZG1rPkAVMKxoCTVtBYAczkT2g3Z69mzfjzPFnfvzmzNEWVF32mzivM
3anZ2pbJhL8H8YFwE/hsCebWiNwhh7tCPnw66I16j80MgDuqhxQ9hsoFqak7h+7l
iz3ljwgat9ITCMc6wkcUUWJ+n4tQxxWekdsHN1s=
-----END CERTIFICATE-----
