Certificate:
    Data:
        Version: 3 (0x2)
        Serial Number: 268435666 (0x100000d2)
    Signature Algorithm: sha256WithRSAEncryption
        Issuer: C=DE, ST=Hessen, O=privacyidea, CN=CA001
        Validity
            Not Before: Aug 16 14:14:00 2018 GMT
            Not After : Aug 16 14:14:00 2019 GMT
        Subject: C=DE, ST=Hessen, O=privacyidea, CN=usercert
        Subject Public Key Info:
            Public Key Algorithm: rsaEncryption
                Public-Key: (2048 bit)
                Modulus:
                    00:dc:2f:d1:5f:29:97:d4:7c:c3:53:c8:30:bd:4b:
                    67:70:2c:24:6b:b8:5e:eb:21:7a:48:12:56:7c:81:
                    5c:48:75:b6:68:eb:f6:f2:98:4e:50:51:d1:7f:6c:
                    73:f3:0a:a7:ae:be:48:5e:e5:d6:e1:d9:2a:7c:32:
                    6e:4e:fd:08:f6:5a:54:49:23:73:c3:b9:07:18:d1:
                    ef:b3:ac:f8:8a:dc:94:96:a4:90:3a:8e:74:df:e6:
                    0d:37:1b:bd:5b:b7:25:1a:56:39:da:6f:91:aa:5e:
                    1c:74:f3:f9:7c:14:01:83:12:65:76:c7:bb:fe:36:
                    5b:95:e9:72:65:83:ed:3e:98:30:71:fa:87:dd:a3:
                    36:5a:30:03:2e:26:e0:61:d1:bf:02:3f:b6:06:1f:
                    4a:89:28:1c:5c:a2:ff:4e:be:94:e6:8c:e0:da:82:
                    f1:9d:29:32:48:30:73:b4:04:f6:42:1e:be:f7:e2:
                    32:32:27:3c:9d:89:2f:70:3e:85:9a:6f:5c:c5:09:
                    c0:8c:32:2f:72:22:c9:d2:95:1f:b6:ac:72:60:72:
                    b7:82:4d:6b:ce:5b:e3:00:d0:d2:2f:58:c6:e0:10:
                    e5:51:ca:4d:3b:2e:e6:7e:ab:84:d6:56:f1:93:35:
                    a0:93:64:26:81:75:2f:91:b5:16:06:38:0b:db:cc:
                    2d:07
                Exponent: 65537 (0x10001)
        X509v3 extensions:
            X509v3 Key Usage: 
                Digital Signature, Key Encipherment
            X509v3 Basic Constraints: 
                CA:FALSE
            Netscape Cert Type: 
                SSL Server
            Netscape Comment: 
                OpenSSL Generated Server Certificate
            X509v3 Subject Key Identifier: 
                FC:14:D1:F0:4B:8D:00:90:F2:F5:B8:71:9E:4E:97:C3:92:54:AD:0B
            X509v3 Authority Key Identifier: 
                keyid:F4:A7:C0:CC:91:46:AF:64:F3:91:F2:27:F8:C8:B2:6F:8A:87:32:73
                DirName:/C=DE/ST=Hessen/O=privacyidea/CN=CA001
                serial:FB:C8:EB:AC:83:CD:12:07

            X509v3 Extended Key Usage: 
                TLS Web Server Authentication
    Signature Algorithm: sha256WithRSAEncryption
         8a:1f:d0:80:54:d6:c6:ed:23:f8:91:af:31:e4:3b:0d:b0:70:
         15:6a:63:6e:4e:07:db:81:ec:44:b9:7d:81:db:bb:06:06:76:
         3b:60:39:9c:ce:70:76:6e:1a:57:49:39:0a:84:ba:19:97:29:
         71:7c:30:95:6f:dd:d9:12:e1:bb:ec:bc:5b:fe:3d:78:e4:98:
         b5:fc:46:c4:ba:99:5e:73:d9:7a:27:f3:87:7f:b4:8b:86:25:
         58:16:dd:ca:b1:fd:38:60:7e:9f:d3:a0:20:c1:a8:44:52:23:
         78:77:85:f3:38:fa:2d:9e:15:de:8f:7c:76:0b:bc:cb:07:ff:
         56:4a:32:fe:07:3f:25:f4:96:35:f5:60:13:5f:8e:2a:0b:dd:
         43:23:7f:43:7e:74:d9:57:7f:26:c1:21:cf:7c:24:f6:01:35:
         2e:c7:c9:1e:06:ed:7f:88:dd:45:34:44:8c:9c:ea:e9:9d:82:
         04:2b:5c:2f:60:a8:7f:12:da:09:92:f4:27:2b:dc:a9:95:dd:
         2d:2d:5b:46:5a:91:cc:d5:69:d5:5e:52:f3:3d:de:81:8e:ca:
         97:92:09:7a:83:20:51:90:db:a3:53:4a:ed:fb:26:75:83:8a:
         08:7e:00:ae:00:51:56:6a:a3:cd:bb:8e:7b:d7:ba:d6:02:62:
         fc:ba:a1:90
-----BEGIN CERTIFICATE-----
MIIEGTCCAwGgAwIBAgIEEAAA0jANBgkqhkiG9w0BAQsFADBEMQswCQYDVQQGEwJE
RTEPMA0GA1UECAwGSGVzc2VuMRQwEgYDVQQKDAtwcml2YWN5aWRlYTEOMAwGA1UE
AwwFQ0EwMDEwHhcNMTgwODE2MTQxNDAwWhcNMTkwODE2MTQxNDAwWjBHMQswCQYD
VQQGEwJERTEPMA0GA1UECAwGSGVzc2VuMRQwEgYDVQQKDAtwcml2YWN5aWRlYTER
MA8GA1UEAwwIdXNlcmNlcnQwggEiMA0GCSqGSIb3DQEBAQUAA4IBDwAwggEKAoIB
AQDcL9FfKZfUfMNTyDC9S2dwLCRruF7rIXpIElZ8gVxIdbZo6/bymE5QUdF/bHPz
Cqeuvkhe5dbh2Sp8Mm5O/Qj2WlRJI3PDuQcY0e+zrPiK3JSWpJA6jnTf5g03G71b
tyUaVjnab5GqXhx08/l8FAGDEmV2x7v+NluV6XJlg+0+mDBx+ofdozZaMAMuJuBh
0b8CP7YGH0qJKBxcov9OvpTmjODagvGdKTJIMHO0BPZCHr734jIyJzydiS9wPoWa
b1zFCcCMMi9yIsnSlR+2rHJgcreCTWvOW+MA0NIvWMbgEOVRyk07LuZ+q4TWVvGT
NaCTZCaBdS+RtRYGOAvbzC0HAgMBAAGjggEOMIIBCjALBgNVHQ8EBAMCBaAwCQYD
VR0TBAIwADARBglghkgBhvhCAQEEBAMCBkAwMwYJYIZIAYb4QgENBCYWJE9wZW5T
U0wgR2VuZXJhdGVkIFNlcnZlciBDZXJ0aWZpY2F0ZTAdBgNVHQ4EFgQU/BTR8EuN
AJDy9bhxnk6Xw5JUrQswdAYDVR0jBG0wa4AU9KfAzJFGr2TzkfIn+Miyb4qHMnOh
SKRGMEQxCzAJBgNVBAYTAkRFMQ8wDQYDVQQIDAZIZXNzZW4xFDASBgNVBAoMC3By
aXZhY3lpZGVhMQ4wDAYDVQQDDAVDQTAwMYIJAPvI66yDzRIHMBMGA1UdJQQMMAoG
CCsGAQUFBwMBMA0GCSqGSIb3DQEBCwUAA4IBAQCKH9CAVNbG7SP4ka8x5DsNsHAV
amNuTgfbgexEuX2B27sGBnY7YDmcznB2bhpXSTkKhLoZlylxfDCVb93ZEuG77Lxb
/j145Ji1/EbEuplec9l6J/OHf7SLhiVYFt3Ksf04YH6f06AgwahEUiN4d4XzOPot
nhXej3x2C7zLB/9WSjL+Bz8l9JY19WATX44qC91DI39DfnTZV38mwSHPfCT2ATUu
x8keBu1/iN1FNESMnOrpnYIEK1wvYKh/EtoJkvQnK9ypld0tLVtGWpHM1WnVXlLz
Pd6BjsqXkgl6gyBRkNujU0rt+yZ1g4oIfgCuAFFWaqPNu45717rWAmL8uqGQ
-----END CERTIFICATE-----
