Certificate:
    Data:
        Version: 3 (0x2)
        Serial Number: 268435668 (0x100000d4)
    Signature Algorithm: sha256WithRSAEncryption
        Issuer: C=DE, ST=Hessen, O=privacyidea, CN=CA001
        Validity
            Not Before: Jul 31 12:28:14 2018 GMT
            Not After : Aug 19 12:28:14 2020 GMT
        Subject: CN=Steve Test/emailAddress=steve@openssl.org
        Subject Public Key Info:
            Public Key Algorithm: rsaEncryption
                Public-Key: (2048 bit)
                Modulus:
                    00:d2:81:89:20:51:48:0f:73:f4:11:32:24:d5:1f:
                    1c:fd:5c:f5:b6:e6:c5:f0:52:81:dc:d2:af:66:4a:
                    7c:93:31:61:5c:af:d1:6d:06:70:03:60:7c:72:0c:
                    88:dd:49:cd:9e:02:6c:d2:5a:d7:53:0f:f3:da:be:
                    69:64:b5:0f:0c:00:e3:b3:50:47:a3:b3:9b:ba:13:
                    50:d6:58:5a:4b:ab:39:e0:11:ca:0a:27:67:03:78:
                    22:66:6d:92:1e:1b:5c:49:ae:e6:6b:d1:8e:3b:9d:
                    06:d3:c6:ac:4d:53:43:10:ab:e8:96:c1:87:82:97:
                    99:8f:20:d3:99:12:37:31:84:e1:8a:ff:29:03:5f:
                    22:90:3e:7f:9b:e0:20:c1:ad:dc:ae:4c:39:1a:31:
                    96:17:02:8c:b2:d9:b4:0d:20:12:9b:7d:86:54:fd:
                    33:fd:c1:2a:62:46:f8:60:96:cf:6e:01:6f:22:df:
                    13:47:e7:97:ec:05:72:23:a3:62:f8:fa:ef:ac:9c:
                    72:f0:37:cb:2f:37:cf:90:a8:27:51:86:c6:d7:78:
                    08:8f:7e:25:a2:15:70:a2:fb:1c:b6:15:5e:a0:97:
                    8b:81:4c:09:28:8a:27:3b:94:bc:71:db:5b:71:37:
                    9a:2b:16:e0:6f:b5:c9:f5:4b:4f:20:ba:65:cf:af:
                    ad:ad
                Exponent: 65537 (0x10001)
        X509v3 extensions:
            X509v3 Key Usage: 
                Digital Signature, Key Encipherment
            X509v3 Basic Constraints: 
                CA:FALSE
            Netscape Cert Type: 
                SSL Server
            Netscape Comment: 
                OpenSSL Generated Server Certificate
            X509v3 Subject Key Identifier: 
                E5:25:6D:3E:AF:0D:DD:3F:4C:F2:45:19:39:D5:14:DB:7E:9C:C0:AD
            X509v3 Authority Key Identifier: 
                keyid:F4:A7:C0:CC:91:46:AF:64:F3:91:F2:27:F8:C8:B2:6F:8A:87:32:73
                DirName:/C=DE/ST=Hessen/O=privacyidea/CN=CA001
                serial:FB:C8:EB:AC:83:CD:12:07

            X509v3 Extended Key Usage: 
                TLS Web Server Authentication
    Signature Algorithm: sha256WithRSAEncryption
         4c:80:62:d0:96:54:e3:8b:c2:1f:96:fc:d1:dd:60:9e:71:35:
         92:c3:d3:d6:88:7b:9d:51:95:e1:8f:2b:ea:c2:cf:e8:1b:c8:
         0d:ad:76:3b:71:7e:ff:86:32:91:8d:df:94:b8:cc:f2:d2:1e:
         25:1e:27:7c:1a:ac:d4:76:2d:ff:fd:23:40:92:20:f2:3c:a5:
         75:99:07:0a:a1:d4:7d:5d:87:82:70:4a:8c:70:ef:00:a3:98:
         1e:3e:d6:1f:eb:54:c7:35:c6:65:35:72:19:e4:4f:90:7a:7e:
         df:c9:1a:be:40:5f:28:40:d1:32:70:74:64:15:28:26:58:f5:
         5b:9a:1d:64:41:19:9a:a8:47:e3:0e:b5:ce:ac:c7:95:3b:70:
         49:22:83:7d:a8:9f:67:cf:79:bb:e7:52:c2:71:2c:3d:c8:94:
         35:a7:9f:41:bd:ff:40:e0:ff:15:92:da:aa:dc:85:35:e5:9f:
         1d:cc:78:7d:33:45:68:09:53:be:e6:de:78:bc:76:a4:0e:38:
         7e:ce:00:8d:25:a8:a0:35:2f:5b:63:96:18:c8:4d:31:79:ab:
         f3:72:b2:28:87:1d:c6:17:6c:c8:3d:8e:b0:54:91:06:a3:a2:
         2a:5e:dd:84:d2:97:5a:e8:24:ae:5e:be:91:9f:22:0a:4f:55:
         77:65:5e:da
-----BEGIN CERTIFICATE-----
MIIECTCCAvGgAwIBAgIEEAAA1DANBgkqhkiG9w0BAQsFADBEMQswCQYDVQQGEwJE
RTEPMA0GA1UECAwGSGVzc2VuMRQwEgYDVQQKDAtwcml2YWN5aWRlYTEOMAwGA1UE
AwwFQ0EwMDEwHhcNMTgwNzMxMTIyODE0WhcNMjAwODE5MTIyODE0WjA3MRMwEQYD
VQQDDApTdGV2ZSBUZXN0MSAwHgYJKoZIhvcNAQkBFhFzdGV2ZUBvcGVuc3NsLm9y
ZzCCASIwDQYJKoZIhvcNAQEBBQADggEPADCCAQoCggEBANKBiSBRSA9z9BEyJNUf
HP1c9bbmxfBSgdzSr2ZKfJMxYVyv0W0GcANgfHIMiN1JzZ4CbNJa11MP89q+aWS1
DwwA47NQR6Ozm7oTUNZYWkurOeARygonZwN4ImZtkh4bXEmu5mvRjjudBtPGrE1T
QxCr6JbBh4KXmY8g05kSNzGE4Yr/KQNfIpA+f5vgIMGt3K5MORoxlhcCjLLZtA0g
Ept9hlT9M/3BKmJG+GCWz24BbyLfE0fnl+wFciOjYvj676yccvA3yy83z5CoJ1GG
xtd4CI9+JaIVcKL7HLYVXqCXi4FMCSiKJzuUvHHbW3E3misW4G+1yfVLTyC6Zc+v
ra0CAwEAAaOCAQ4wggEKMAsGA1UdDwQEAwIFoDAJBgNVHRMEAjAAMBEGCWCGSAGG
+EIBAQQEAwIGQDAzBglghkgBhvhCAQ0EJhYkT3BlblNTTCBHZW5lcmF0ZWQgU2Vy
dmVyIENlcnRpZmljYXRlMB0GA1UdDgQWBBTlJW0+rw3dP0zyRRk51RTbfpzArTB0
BgNVHSMEbTBrgBT0p8DMkUavZPOR8if4yLJviocyc6FIpEYwRDELMAkGA1UEBhMC
REUxDzANBgNVBAgMBkhlc3NlbjEUMBIGA1UECgwLcHJpdmFjeWlkZWExDjAMBgNV
BAMMBUNBMDAxggkA+8jrrIPNEgcwEwYDVR0lBAwwCgYIKwYBBQUHAwEwDQYJKoZI
hvcNAQELBQADggEBAEyAYtCWVOOLwh+W/NHdYJ5xNZLD09aIe51RleGPK+rCz+gb
yA2tdjtxfv+GMpGN35S4zPLSHiUeJ3warNR2Lf/9I0CSIPI8pXWZBwqh1H1dh4Jw
Soxw7wCjmB4+1h/rVMc1xmU1chnkT5B6ft/JGr5AXyhA0TJwdGQVKCZY9VuaHWRB
GZqoR+MOtc6sx5U7cEkig32on2fPebvnUsJxLD3IlDWnn0G9/0Dg/xWS2qrchTXl
nx3MeH0zRWgJU77m3ni8dqQOOH7OAI0lqKA1L1tjlhjITTF5q/NysiiHHcYXbMg9
jrBUkQajoipe3YTSl1roJK5evpGfIgpPVXdlXto=
-----END CERTIFICATE-----
