Certificate:
    Data:
        Version: 3 (0x2)
        Serial Number: 268435670 (0x100000d6)
    Signature Algorithm: sha256WithRSAEncryption
        Issuer: C=DE, ST=Hessen, O=privacyidea, CN=CA001
        Validity
            Not Before: Jul 31 12:33:25 2018 GMT
            Not After : Jul 31 12:33:25 2019 GMT
        Subject: OU=realm1, CN=cornelius/emailAddress=user@localhost.localdomain
        Subject Public Key Info:
            Public Key Algorithm: rsaEncryption
                Public-Key: (2048 bit)
                Modulus:
                    00:bf:e3:bb:91:f0:90:bb:8a:3b:f2:00:44:08:3e:
                    94:3c:ee:d1:99:51:fb:35:d8:f0:0e:3c:2a:88:ca:
                    1d:bf:7d:c9:82:88:3e:56:85:9b:54:b7:d3:1b:00:
                    96:6b:d5:eb:ab:49:62:f9:f6:11:27:bb:14:86:67:
                    5c:a9:2b:d0:06:d0:9f:58:03:a0:0b:67:18:22:38:
                    3f:8b:8a:47:9d:46:94:e0:ad:4d:c6:41:81:64:0a:
                    14:fb:82:de:89:77:48:00:36:2f:d3:58:31:e6:43:
                    27:c4:c5:8f:fb:2b:c1:3c:34:9b:a2:26:39:10:3d:
                    f2:6e:db:2b:81:34:44:b7:6f:57:47:55:3e:89:43:
                    64:54:9f:1b:18:8c:dd:27:20:dd:0a:73:83:33:63:
                    53:e1:52:40:08:0d:f0:a3:37:bc:d3:66:c2:7c:4f:
                    1e:4f:2f:26:e0:4b:b2:3c:44:93:5b:a4:7b:f4:9e:
                    9a:d3:7e:e9:a6:a6:f5:44:85:17:d6:95:e2:94:b7:
                    b8:55:64:6a:1f:0a:ea:06:cd:74:81:72:3e:4c:e0:
                    84:fd:03:44:35:14:15:e3:e2:18:6c:cb:65:04:1b:
                    8b:18:14:8f:8a:e5:21:6f:bf:25:b9:15:62:9e:60:
                    ca:2a:88:37:3c:4d:73:2c:70:d7:14:a6:58:53:27:
                    93:b1
                Exponent: 65537 (0x10001)
        X509v3 extensions:
            X509v3 Key Usage: 
                Digital Signature, Key Encipherment
            X509v3 Basic Constraints: 
                CA:FALSE
            Netscape Cert Type: 
                SSL Server
            Netscape Comment: 
                OpenSSL Generated Server Certificate
            X509v3 Subject Key Identifier: 
                BC:25:3C:1B:29:15:AC:90:10:77:D2:75:70:2E:7F:DE:38:CA:E9:37
            X509v3 Authority Key Identifier: 
                keyid:F4:A7:C0:CC:91:46:AF:64:F3:91:F2:27:F8:C8:B2:6F:8A:87:32:73
                DirName:/C=DE/ST=Hessen/O=privacyidea/CN=CA001
                serial:FB:C8:EB:AC:83:CD:12:07

            X509v3 Extended Key Usage: 
                TLS Web Server Authentication
    Signature Algorithm: sha256WithRSAEncryption
         7e:4c:95:51:fb:e9:05:a3:78:95:ff:fb:e8:04:03:5d:4e:cf:
         80:ea:29:47:dd:67:7b:e0:f6:2d:ce:c5:b4:25:c3:cb:fc:e3:
         1f:a5:e2:49:0d:3f:22:72:43:41:ba:12:e8:8c:0b:26:6f:ca:
         31:29:0c:4b:8d:c4:52:0a:ec:a7:0a:38:c4:45:19:99:c3:38:
         e6:92:5f:a2:6d:11:a2:ab:db:d9:bd:39:98:84:c1:03:a8:8d:
         28:d3:36:1b:dc:93:94:ed:0b:f1:3f:96:5d:ba:be:17:66:6f:
         ef:1b:b2:13:09:6f:e7:fd:0c:ad:95:bf:c1:de:d2:33:fe:65:
         57:76:e8:ca:77:ae:d5:d5:ea:d8:3c:eb:fc:b9:8d:83:5e:0d:
         cd:b9:cf:e8:f2:4a:59:99:37:b9:64:b8:51:00:09:ef:2f:21:
         9d:19:54:d8:4d:f1:8e:52:d1:38:61:61:94:c0:93:3c:5b:f5:
         94:55:e7:b1:09:64:45:a9:f9:ad:76:79:2f:99:4b:a5:36:62:
         28:86:ae:08:34:78:e5:a2:ea:8c:77:2f:69:ec:54:b1:ff:37:
         f4:73:c7:9a:11:b8:ee:46:fc:6b:5c:62:e1:da:bb:c9:19:72:
         05:e8:76:0f:09:5d:5b:63:71:cf:72:cc:d0:f2:18:3d:3a:23:
         8c:df:85:7e
-----BEGIN CERTIFICATE-----
MIIEIjCCAwqgAwIBAgIEEAAA1jANBgkqhkiG9w0BAQsFADBEMQswCQYDVQQGEwJE
RTEPMA0GA1UECAwGSGVzc2VuMRQwEgYDVQQKDAtwcml2YWN5aWRlYTEOMAwGA1UE
AwwFQ0EwMDEwHhcNMTgwNzMxMTIzMzI1WhcNMTkwNzMxMTIzMzI1WjBQMQ8wDQYD
VQQLDAZyZWFsbTExEjAQBgNVBAMMCWNvcm5lbGl1czEpMCcGCSqGSIb3DQEJARYa
dXNlckBsb2NhbGhvc3QubG9jYWxkb21haW4wggEiMA0GCSqGSIb3DQEBAQUAA4IB
DwAwggEKAoIBAQC/47uR8JC7ijvyAEQIPpQ87tGZUfs12PAOPCqIyh2/fcmCiD5W
hZtUt9MbAJZr1eurSWL59hEnuxSGZ1ypK9AG0J9YA6ALZxgiOD+LikedRpTgrU3G
QYFkChT7gt6Jd0gANi/TWDHmQyfExY/7K8E8NJuiJjkQPfJu2yuBNES3b1dHVT6J
Q2RUnxsYjN0nIN0Kc4MzY1PhUkAIDfCjN7zTZsJ8Tx5PLybgS7I8RJNbpHv0nprT
fummpvVEhRfWleKUt7hVZGofCuoGzXSBcj5M4IT9A0Q1FBXj4hhsy2UEG4sYFI+K
5SFvvyW5FWKeYMoqiDc8TXMscNcUplhTJ5OxAgMBAAGjggEOMIIBCjALBgNVHQ8E
BAMCBaAwCQYDVR0TBAIwADARBglghkgBhvhCAQEEBAMCBkAwMwYJYIZIAYb4QgEN
BCYWJE9wZW5TU0wgR2VuZXJhdGVkIFNlcnZlciBDZXJ0aWZpY2F0ZTAdBgNVHQ4E
FgQUvCU8GykVrJAQd9J1cC5/3jjK6TcwdAYDVR0jBG0wa4AU9KfAzJFGr2TzkfIn
+Miyb4qHMnOhSKRGMEQxCzAJBgNVBAYTAkRFMQ8wDQYDVQQIDAZIZXNzZW4xFDAS
BgNVBAoMC3ByaXZhY3lpZGVhMQ4wDAYDVQQDDAVDQTAwMYIJAPvI66yDzRIHMBMG
A1UdJQQMMAoGCCsGAQUFBwMBMA0GCSqGSIb3DQEBCwUAA4IBAQB+TJVR++kFo3iV
//voBANdTs+A6ilH3Wd74PYtzsW0JcPL/OMfpeJJDT8ickNBuhLojAsmb8oxKQxL
jcRSCuynCjjERRmZwzjmkl+ibRGiq9vZvTmYhMEDqI0o0zYb3JOU7QvxP5Zdur4X
Zm/vG7ITCW/n/Qytlb/B3tIz/mVXdujKd67V1erYPOv8uY2DXg3Nuc/o8kpZmTe5
ZLhRAAnvLyGdGVTYTfGOUtE4YWGUwJM8W/WUVeexCWRFqfmtdnkvmUulNmIohq4I
NHjlouqMdy9p7FSx/zf0c8eaEbjuRvxrXGLh2rvJGXIF6HYPCV1bY3HPcszQ8hg9
OiOM34V+
-----END CERTIFICATE-----
