Certificate:
    Data:
        Version: 3 (0x2)
        Serial Number: 268435664 (0x100000d0)
    Signature Algorithm: sha256WithRSAEncryption
        Issuer: C=DE, ST=Hessen, O=privacyidea, CN=CA001
        Validity
            Not Before: Aug 16 14:11:37 2018 GMT
            Not After : Aug 16 14:11:37 2019 GMT
        Subject: C=DE, ST=Hessen, O=privacyidea, CN=requester.localdomain
        Subject Public Key Info:
            Public Key Algorithm: rsaEncryption
                Public-Key: (2048 bit)
                Modulus:
                    00:cd:be:14:4f:fa:ce:01:3f:42:22:1b:1d:9c:af:
                    dd:92:d2:7f:db:6c:b7:3e:39:43:43:6b:13:03:f1:
                    05:f4:07:74:bc:76:69:28:0b:af:19:8e:d7:fc:e3:
                    cd:c6:58:f2:ca:7f:08:6d:53:fc:07:02:44:24:c6:
                    b4:34:4c:8c:04:fe:33:0e:40:e2:20:ba:02:73:5a:
                    f7:f5:4f:63:6e:cc:c6:b6:df:54:1d:37:39:7d:51:
                    36:26:5f:bd:dc:3f:a8:8b:6b:a2:ae:b6:9d:d6:21:
                    e7:df:41:b8:7a:28:2a:68:48:ca:a8:2d:ed:e1:e9:
                    46:5e:5a:72:6d:b4:84:38:87:91:fd:94:11:0b:28:
                    84:c6:c2:2f:2a:fb:01:f9:36:7a:09:75:d1:33:88:
                    3c:73:41:5b:c8:bf:94:89:70:a1:f0:c0:b9:2e:50:
                    53:1e:b1:17:64:69:f4:2d:81:e0:a9:0d:0e:32:e9:
                    ba:55:8a:85:f1:1b:6f:49:79:b4:7f:88:c3:0d:3e:
                    54:88:9b:3d:1f:38:8c:04:f3:ee:6a:63:2b:f5:c6:
                    db:b4:83:aa:c4:78:41:3a:7d:4b:e1:c8:3e:71:ca:
                    1b:61:59:ea:c6:c4:ca:32:5e:c9:e9:bf:12:29:e6:
                    c6:c3:63:fe:a0:55:da:7a:f1:60:98:4d:26:ed:fa:
                    70:2d
                Exponent: 65537 (0x10001)
        X509v3 extensions:
            X509v3 Key Usage: 
                Digital Signature, Key Encipherment
            X509v3 Basic Constraints: 
                CA:FALSE
            Netscape Cert Type: 
                SSL Server
            Netscape Comment: 
                OpenSSL Generated Server Certificate
            X509v3 Subject Key Identifier: 
                53:3F:ED:5D:09:07:B3:65:7B:AB:45:C9:24:5B:09:77:80:0A:96:ED
            X509v3 Authority Key Identifier: 
                keyid:F4:A7:C0:CC:91:46:AF:64:F3:91:F2:27:F8:C8:B2:6F:8A:87:32:73
                DirName:/C=DE/ST=Hessen/O=privacyidea/CN=CA001
                serial:FB:C8:EB:AC:83:CD:12:07

            X509v3 Extended Key Usage: 
                TLS Web Server Authentication
    Signature Algorithm: sha256WithRSAEncryption
         1f:d0:20:ed:26:53:84:f8:83:da:66:5b:44:a7:1a:3b:71:55:
         8d:80:9e:43:ad:c3:d0:a3:a7:42:3c:9b:06:83:3b:35:49:e3:
         f0:c2:39:44:78:b3:60:82:d0:87:29:4d:78:2f:b6:cb:5f:6c:
         d7:09:69:fd:15:57:d2:e1:95:05:ac:d1:28:51:41:3a:d4:fa:
         0b:b2:60:0d:c6:3e:b5:a0:46:b4:fd:38:33:e9:1d:3e:f5:c1:
         1d:d4:07:87:38:45:10:c3:1b:3f:f5:43:2f:3b:0f:a7:a5:45:
         63:72:2a:c2:05:52:d3:d2:e8:93:cc:43:cf:b5:12:90:5c:c1:
         fe:7d:92:d4:f1:bf:81:bb:14:d1:49:97:83:f8:b7:2c:a7:78:
         74:46:72:13:b2:c1:98:0a:c1:0e:f3:cc:ad:fd:a7:ea:58:29:
         39:03:e3:18:78:d9:10:3f:74:dc:db:81:a1:c8:51:7a:64:82:
         6b:2c:69:9f:55:b9:50:64:93:54:b2:32:45:3f:be:ad:b0:9f:
         4a:11:a4:87:62:d8:29:fb:fb:2e:fb:79:aa:60:ac:9e:5d:64:
         df:36:01:76:e0:bd:e7:90:65:11:48:db:4f:81:eb:30:35:03:
         f3:22:f8:6d:43:3a:26:d8:af:e8:cf:34:e9:b3:f5:5b:7b:88:
         f2:97:8f:a6
-----BEGIN CERTIFICATE-----
MIIEJjCCAw6gAwIBAgIEEAAA0DANBgkqhkiG9w0BAQsFADBEMQswCQYDVQQGEwJE
RTEPMA0GA1UECAwGSGVzc2VuMRQwEgYDVQQKDAtwcml2YWN5aWRlYTEOMAwGA1UE
AwwFQ0EwMDEwHhcNMTgwODE2MTQxMTM3WhcNMTkwODE2MTQxMTM3WjBUMQswCQYD
VQQGEwJERTEPMA0GA1UECAwGSGVzc2VuMRQwEgYDVQQKDAtwcml2YWN5aWRlYTEe
MBwGA1UEAwwVcmVxdWVzdGVyLmxvY2FsZG9tYWluMIIBIjANBgkqhkiG9w0BAQEF
AAOCAQ8AMIIBCgKCAQEAzb4UT/rOAT9CIhsdnK/dktJ/22y3PjlDQ2sTA/EF9Ad0
vHZpKAuvGY7X/OPNxljyyn8IbVP8BwJEJMa0NEyMBP4zDkDiILoCc1r39U9jbszG
tt9UHTc5fVE2Jl+93D+oi2uirrad1iHn30G4eigqaEjKqC3t4elGXlpybbSEOIeR
/ZQRCyiExsIvKvsB+TZ6CXXRM4g8c0FbyL+UiXCh8MC5LlBTHrEXZGn0LYHgqQ0O
Mum6VYqF8RtvSXm0f4jDDT5UiJs9HziMBPPuamMr9cbbtIOqxHhBOn1L4cg+ccob
YVnqxsTKMl7J6b8SKebGw2P+oFXaevFgmE0m7fpwLQIDAQABo4IBDjCCAQowCwYD
VR0PBAQDAgWgMAkGA1UdEwQCMAAwEQYJYIZIAYb4QgEBBAQDAgZAMDMGCWCGSAGG
+EIBDQQmFiRPcGVuU1NMIEdlbmVyYXRlZCBTZXJ2ZXIgQ2VydGlmaWNhdGUwHQYD
VR0OBBYEFFM/7V0JB7Nle6tFySRbCXeACpbtMHQGA1UdIwRtMGuAFPSnwMyRRq9k
85HyJ/jIsm+KhzJzoUikRjBEMQswCQYDVQQGEwJERTEPMA0GA1UECAwGSGVzc2Vu
MRQwEgYDVQQKDAtwcml2YWN5aWRlYTEOMAwGA1UEAwwFQ0EwMDGCCQD7yOusg80S
BzATBgNVHSUEDDAKBggrBgEFBQcDATANBgkqhkiG9w0BAQsFAAOCAQEAH9Ag7SZT
hPiD2mZbRKcaO3FVjYCeQ63D0KOnQjybBoM7NUnj8MI5RHizYILQhylNeC+2y19s
1wlp/RVX0uGVBazRKFFBOtT6C7JgDcY+taBGtP04M+kdPvXBHdQHhzhFEMMbP/VD
LzsPp6VFY3IqwgVS09Lok8xDz7USkFzB/n2S1PG/gbsU0UmXg/i3LKd4dEZyE7LB
mArBDvPMrf2n6lgpOQPjGHjZED903NuBochRemSCayxpn1W5UGSTVLIyRT++rbCf
ShGkh2LYKfv7Lvt5qmCsnl1k3zYBduC955BlEUjbT4HrMDUD8yL4bUM6Jtiv6M80
6bP1W3uI8pePpg==
-----END CERTIFICATE-----
