Certificate:
    Data:
        Version: 3 (0x2)
        Serial Number: 268435668 (0x100000d4)
    Signature Algorithm: sha256WithRSAEncryption
        Issuer: C=DE, ST=Hessen, O=privacyidea, CN=CA001
        Validity
            Not Before: Aug 16 14:14:01 2018 GMT
            Not After : Sep  4 14:14:01 2020 GMT
        Subject: CN=Steve Test/emailAddress=steve@openssl.org
        Subject Public Key Info:
            Public Key Algorithm: rsaEncryption
                Public-Key: (2048 bit)
                Modulus:
                    00:d2:81:89:20:51:48:0f:73:f4:11:32:24:d5:1f:
                    1c:fd:5c:f5:b6:e6:c5:f0:52:81:dc:d2:af:66:4a:
                    7c:93:31:61:5c:af:d1:6d:06:70:03:60:7c:72:0c:
                    88:dd:49:cd:9e:02:6c:d2:5a:d7:53:0f:f3:da:be:
                    69:64:b5:0f:0c:00:e3:b3:50:47:a3:b3:9b:ba:13:
                    50:d6:58:5a:4b:ab:39:e0:11:ca:0a:27:67:03:78:
                    22:66:6d:92:1e:1b:5c:49:ae:e6:6b:d1:8e:3b:9d:
                    06:d3:c6:ac:4d:53:43:10:ab:e8:96:c1:87:82:97:
                    99:8f:20:d3:99:12:37:31:84:e1:8a:ff:29:03:5f:
                    22:90:3e:7f:9b:e0:20:c1:ad:dc:ae:4c:39:1a:31:
                    96:17:02:8c:b2:d9:b4:0d:20:12:9b:7d:86:54:fd:
                    33:fd:c1:2a:62:46:f8:60:96:cf:6e:01:6f:22:df:
                    13:47:e7:97:ec:05:72:23:a3:62:f8:fa:ef:ac:9c:
                    72:f0:37:cb:2f:37:cf:90:a8:27:51:86:c6:d7:78:
                    08:8f:7e:25:a2:15:70:a2:fb:1c:b6:15:5e:a0:97:
                    8b:81:4c:09:28:8a:27:3b:94:bc:71:db:5b:71:37:
                    9a:2b:16:e0:6f:b5:c9:f5:4b:4f:20:ba:65:cf:af:
                    ad:ad
                Exponent: 65537 (0x10001)
        X509v3 extensions:
            X509v3 Key Usage: 
                Digital Signature, Key Encipherment
            X509v3 Basic Constraints: 
                CA:FALSE
            Netscape Cert Type: 
                SSL Server
            Netscape Comment: 
                OpenSSL Generated Server Certificate
            X509v3 Subject Key Identifier: 
                E5:25:6D:3E:AF:0D:DD:3F:4C:F2:45:19:39:D5:14:DB:7E:9C:C0:AD
            X509v3 Authority Key Identifier: 
                keyid:F4:A7:C0:CC:91:46:AF:64:F3:91:F2:27:F8:C8:B2:6F:8A:87:32:73
                DirName:/C=DE/ST=Hessen/O=privacyidea/CN=CA001
                serial:FB:C8:EB:AC:83:CD:12:07

            X509v3 Extended Key Usage: 
                TLS Web Server Authentication
    Signature Algorithm: sha256WithRSAEncryption
         6c:ed:f7:66:3c:5e:2c:a8:c8:81:b3:45:8e:b0:cf:cd:e0:e5:
         16:29:8f:18:6e:38:c5:62:30:40:49:ed:26:db:d7:5a:b7:ed:
         3f:8f:1b:56:bd:a6:12:c2:92:61:4a:1e:89:49:99:11:35:77:
         12:be:4f:bd:54:a7:fd:41:93:b3:8c:d2:59:fb:bb:7f:42:0a:
         2b:35:c9:26:12:2a:b9:9d:82:b0:77:9e:b0:fa:2c:58:c5:88:
         57:93:4e:ec:3d:41:f1:2b:66:6a:3b:f9:98:82:8d:ca:ed:2f:
         c4:d8:66:ed:13:f2:7c:81:b1:50:06:48:c2:aa:25:e4:1e:ad:
         00:c8:f4:73:a2:91:a4:a2:4e:2b:eb:c5:a7:8a:90:70:1c:75:
         64:4d:18:70:9c:22:cd:b7:91:bc:49:36:02:68:21:e6:da:5b:
         61:06:c4:de:38:99:05:4e:b1:07:34:db:54:e0:3c:1d:71:74:
         db:e1:99:40:5f:93:66:19:c8:c9:76:fd:0b:5b:d9:6e:11:a7:
         68:fb:ca:ac:79:03:50:ce:56:a4:73:28:c0:64:25:d8:a2:1e:
         99:e8:6f:30:6f:d6:91:4a:d4:34:62:65:cc:d3:fb:a4:0a:d0:
         63:33:16:0a:da:44:f5:f5:a4:ba:07:a2:93:cf:eb:81:1e:04:
         b7:22:07:dc
-----BEGIN CERTIFICATE-----
MIIECTCCAvGgAwIBAgIEEAAA1DANBgkqhkiG9w0BAQsFADBEMQswCQYDVQQGEwJE
RTEPMA0GA1UECAwGSGVzc2VuMRQwEgYDVQQKDAtwcml2YWN5aWRlYTEOMAwGA1UE
AwwFQ0EwMDEwHhcNMTgwODE2MTQxNDAxWhcNMjAwOTA0MTQxNDAxWjA3MRMwEQYD
VQQDDApTdGV2ZSBUZXN0MSAwHgYJKoZIhvcNAQkBFhFzdGV2ZUBvcGVuc3NsLm9y
ZzCCASIwDQYJKoZIhvcNAQEBBQADggEPADCCAQoCggEBANKBiSBRSA9z9BEyJNUf
HP1c9bbmxfBSgdzSr2ZKfJMxYVyv0W0GcANgfHIMiN1JzZ4CbNJa11MP89q+aWS1
DwwA47NQR6Ozm7oTUNZYWkurOeARygonZwN4ImZtkh4bXEmu5mvRjjudBtPGrE1T
QxCr6JbBh4KXmY8g05kSNzGE4Yr/KQNfIpA+f5vgIMGt3K5MORoxlhcCjLLZtA0g
Ept9hlT9M/3BKmJG+GCWz24BbyLfE0fnl+wFciOjYvj676yccvA3yy83z5CoJ1GG
xtd4CI9+JaIVcKL7HLYVXqCXi4FMCSiKJzuUvHHbW3E3misW4G+1yfVLTyC6Zc+v
ra0CAwEAAaOCAQ4wggEKMAsGA1UdDwQEAwIFoDAJBgNVHRMEAjAAMBEGCWCGSAGG
+EIBAQQEAwIGQDAzBglghkgBhvhCAQ0EJhYkT3BlblNTTCBHZW5lcmF0ZWQgU2Vy
dmVyIENlcnRpZmljYXRlMB0GA1UdDgQWBBTlJW0+rw3dP0zyRRk51RTbfpzArTB0
BgNVHSMEbTBrgBT0p8DMkUavZPOR8if4yLJviocyc6FIpEYwRDELMAkGA1UEBhMC
REUxDzANBgNVBAgMBkhlc3NlbjEUMBIGA1UECgwLcHJpdmFjeWlkZWExDjAMBgNV
BAMMBUNBMDAxggkA+8jrrIPNEgcwEwYDVR0lBAwwCgYIKwYBBQUHAwEwDQYJKoZI
hvcNAQELBQADggEBAGzt92Y8XiyoyIGzRY6wz83g5RYpjxhuOMViMEBJ7Sbb11q3
7T+PG1a9phLCkmFKHolJmRE1dxK+T71Up/1Bk7OM0ln7u39CCis1ySYSKrmdgrB3
nrD6LFjFiFeTTuw9QfErZmo7+ZiCjcrtL8TYZu0T8nyBsVAGSMKqJeQerQDI9HOi
kaSiTivrxaeKkHAcdWRNGHCcIs23kbxJNgJoIebaW2EGxN44mQVOsQc021TgPB1x
dNvhmUBfk2YZyMl2/Qtb2W4Rp2j7yqx5A1DOVqRzKMBkJdiiHpnobzBv1pFK1DRi
ZczT+6QK0GMzFgraRPX1pLoHopPP64EeBLciB9w=
-----END CERTIFICATE-----
