Certificate:
    Data:
        Version: 3 (0x2)
        Serial Number: 268435670 (0x100000d6)
    Signature Algorithm: sha256WithRSAEncryption
        Issuer: C=DE, ST=Hessen, O=privacyidea, CN=CA001
        Validity
            Not Before: Aug 16 14:18:57 2018 GMT
            Not After : Aug 16 14:18:57 2019 GMT
        Subject: OU=realm1, CN=cornelius/emailAddress=user@localhost.localdomain
        Subject Public Key Info:
            Public Key Algorithm: rsaEncryption
                Public-Key: (2048 bit)
                Modulus:
                    00:cd:a9:b7:30:4e:4c:84:81:35:25:41:20:f8:45:
                    71:09:16:49:1d:b5:c7:14:a1:0e:c2:b0:d9:07:08:
                    7b:a9:a1:bb:bb:3e:29:51:65:62:95:a1:ee:24:07:
                    65:99:4e:54:12:b0:2f:e0:13:3b:3d:3f:34:e5:c7:
                    58:84:f5:ce:9d:f4:94:4b:e6:d8:dc:28:61:56:d3:
                    5b:44:d2:60:fc:93:bd:da:50:c3:89:89:a6:18:e5:
                    37:28:fa:d9:fc:d2:eb:08:c8:f3:6c:11:0e:cb:0e:
                    05:e3:8b:02:62:6e:2e:44:2f:5a:8f:f9:dc:88:b0:
                    3e:74:3d:4c:41:2c:ca:68:73:15:8b:34:95:f7:67:
                    67:e5:89:5c:92:1a:04:a9:71:8a:58:7c:e6:92:7b:
                    7b:ea:f5:04:29:25:df:42:c4:ac:1d:1d:bd:8e:c5:
                    54:56:6b:50:f5:80:7c:63:66:8d:1d:67:51:59:0c:
                    47:24:c5:53:f7:16:34:41:dd:96:30:1c:be:1e:2b:
                    fb:db:48:f4:a7:11:04:b1:8e:98:64:c0:06:8c:fe:
                    f8:55:56:06:dd:fd:55:39:6a:3a:09:0f:7f:6d:0a:
                    d7:6c:ed:c9:72:85:9f:b6:65:cc:1f:e9:eb:b0:73:
                    4b:c4:90:3b:69:49:44:d3:4b:41:22:14:ed:f4:cd:
                    96:37
                Exponent: 65537 (0x10001)
        X509v3 extensions:
            X509v3 Key Usage: 
                Digital Signature, Key Encipherment
            X509v3 Basic Constraints: 
                CA:FALSE
            Netscape Cert Type: 
                SSL Server
            Netscape Comment: 
                OpenSSL Generated Server Certificate
            X509v3 Subject Key Identifier: 
                AD:D5:63:8A:A3:D9:FA:62:A0:77:2F:35:1D:B4:59:87:BB:76:BD:B4
            X509v3 Authority Key Identifier: 
                keyid:F4:A7:C0:CC:91:46:AF:64:F3:91:F2:27:F8:C8:B2:6F:8A:87:32:73
                DirName:/C=DE/ST=Hessen/O=privacyidea/CN=CA001
                serial:FB:C8:EB:AC:83:CD:12:07

            X509v3 Extended Key Usage: 
                TLS Web Server Authentication
    Signature Algorithm: sha256WithRSAEncryption
         02:ec:9e:b9:5d:07:91:bd:67:c9:ff:a0:f7:70:36:b5:d3:63:
         d2:65:67:3d:65:d5:13:06:d7:a1:db:93:f1:69:56:58:bf:eb:
         05:fb:da:3a:53:35:6b:54:b5:34:d7:33:42:d7:cc:9a:3c:4c:
         af:fa:34:cf:7a:fd:3a:6f:0e:02:40:a4:7e:c7:dc:7c:33:f6:
         a9:f7:8a:96:94:95:3a:12:8e:32:5b:7e:01:d9:e7:c2:67:b3:
         ea:b8:58:de:21:4e:48:1b:cb:ff:bd:2b:cd:c2:a3:5d:93:42:
         99:d8:13:c2:5c:28:b3:2e:d7:20:11:2e:cf:a0:94:a3:7b:ca:
         ce:69:d2:b7:c2:08:65:89:df:53:2d:15:25:15:23:9b:1a:17:
         be:73:88:b3:6d:9f:11:30:81:81:fe:b0:cf:46:70:97:b9:82:
         e7:1d:9f:6c:19:65:3f:53:fd:1b:69:1e:c1:f7:80:23:35:b8:
         14:6a:97:1d:c5:be:c5:fb:43:76:d8:9b:4f:6f:22:69:1b:24:
         c8:64:0e:7e:33:53:17:e4:ec:7e:90:b6:88:2d:30:f6:46:fa:
         44:32:5f:bc:b2:e0:f6:f4:1c:5c:38:42:28:a5:a6:1f:1e:dc:
         30:ca:ad:3e:9f:bf:af:7e:fa:3b:6e:4c:2c:bc:71:b4:82:44:
         91:0c:70:e3
-----BEGIN CERTIFICATE-----
MIIEIjCCAwqgAwIBAgIEEAAA1jANBgkqhkiG9w0BAQsFADBEMQswCQYDVQQGEwJE
RTEPMA0GA1UECAwGSGVzc2VuMRQwEgYDVQQKDAtwcml2YWN5aWRlYTEOMAwGA1UE
AwwFQ0EwMDEwHhcNMTgwODE2MTQxODU3WhcNMTkwODE2MTQxODU3WjBQMQ8wDQYD
VQQLDAZyZWFsbTExEjAQBgNVBAMMCWNvcm5lbGl1czEpMCcGCSqGSIb3DQEJARYa
dXNlckBsb2NhbGhvc3QubG9jYWxkb21haW4wggEiMA0GCSqGSIb3DQEBAQUAA4IB
DwAwggEKAoIBAQDNqbcwTkyEgTUlQSD4RXEJFkkdtccUoQ7CsNkHCHupobu7PilR
ZWKVoe4kB2WZTlQSsC/gEzs9PzTlx1iE9c6d9JRL5tjcKGFW01tE0mD8k73aUMOJ
iaYY5Tco+tn80usIyPNsEQ7LDgXjiwJibi5EL1qP+dyIsD50PUxBLMpocxWLNJX3
Z2fliVySGgSpcYpYfOaSe3vq9QQpJd9CxKwdHb2OxVRWa1D1gHxjZo0dZ1FZDEck
xVP3FjRB3ZYwHL4eK/vbSPSnEQSxjphkwAaM/vhVVgbd/VU5ajoJD39tCtds7cly
hZ+2Zcwf6euwc0vEkDtpSUTTS0EiFO30zZY3AgMBAAGjggEOMIIBCjALBgNVHQ8E
BAMCBaAwCQYDVR0TBAIwADARBglghkgBhvhCAQEEBAMCBkAwMwYJYIZIAYb4QgEN
BCYWJE9wZW5TU0wgR2VuZXJhdGVkIFNlcnZlciBDZXJ0aWZpY2F0ZTAdBgNVHQ4E
FgQUrdVjiqPZ+mKgdy81HbRZh7t2vbQwdAYDVR0jBG0wa4AU9KfAzJFGr2TzkfIn
+Miyb4qHMnOhSKRGMEQxCzAJBgNVBAYTAkRFMQ8wDQYDVQQIDAZIZXNzZW4xFDAS
BgNVBAoMC3ByaXZhY3lpZGVhMQ4wDAYDVQQDDAVDQTAwMYIJAPvI66yDzRIHMBMG
A1UdJQQMMAoGCCsGAQUFBwMBMA0GCSqGSIb3DQEBCwUAA4IBAQAC7J65XQeRvWfJ
/6D3cDa102PSZWc9ZdUTBteh25PxaVZYv+sF+9o6UzVrVLU01zNC18yaPEyv+jTP
ev06bw4CQKR+x9x8M/ap94qWlJU6Eo4yW34B2efCZ7PquFjeIU5IG8v/vSvNwqNd
k0KZ2BPCXCizLtcgES7PoJSje8rOadK3wghlid9TLRUlFSObGhe+c4izbZ8RMIGB
/rDPRnCXuYLnHZ9sGWU/U/0baR7B94AjNbgUapcdxb7F+0N22JtPbyJpGyTIZA5+
M1MX5Ox+kLaILTD2RvpEMl+8suD29BxcOEIopaYfHtwwyq0+n7+vfvo7bkwsvHG0
gkSRDHDj
-----END CERTIFICATE-----
