Certificate:
    Data:
        Version: 3 (0x2)
        Serial Number: 268435665 (0x100000d1)
    Signature Algorithm: sha256WithRSAEncryption
        Issuer: C=DE, ST=Hessen, O=privacyidea, CN=CA001
        Validity
            Not Before: Aug 16 14:14:00 2018 GMT
            Not After : Aug 16 14:14:00 2019 GMT
        Subject: C=DE, ST=Hessen, O=privacyidea, CN=requester.localdomain
        Subject Public Key Info:
            Public Key Algorithm: rsaEncryption
                Public-Key: (2048 bit)
                Modulus:
                    00:cd:be:14:4f:fa:ce:01:3f:42:22:1b:1d:9c:af:
                    dd:92:d2:7f:db:6c:b7:3e:39:43:43:6b:13:03:f1:
                    05:f4:07:74:bc:76:69:28:0b:af:19:8e:d7:fc:e3:
                    cd:c6:58:f2:ca:7f:08:6d:53:fc:07:02:44:24:c6:
                    b4:34:4c:8c:04:fe:33:0e:40:e2:20:ba:02:73:5a:
                    f7:f5:4f:63:6e:cc:c6:b6:df:54:1d:37:39:7d:51:
                    36:26:5f:bd:dc:3f:a8:8b:6b:a2:ae:b6:9d:d6:21:
                    e7:df:41:b8:7a:28:2a:68:48:ca:a8:2d:ed:e1:e9:
                    46:5e:5a:72:6d:b4:84:38:87:91:fd:94:11:0b:28:
                    84:c6:c2:2f:2a:fb:01:f9:36:7a:09:75:d1:33:88:
                    3c:73:41:5b:c8:bf:94:89:70:a1:f0:c0:b9:2e:50:
                    53:1e:b1:17:64:69:f4:2d:81:e0:a9:0d:0e:32:e9:
                    ba:55:8a:85:f1:1b:6f:49:79:b4:7f:88:c3:0d:3e:
                    54:88:9b:3d:1f:38:8c:04:f3:ee:6a:63:2b:f5:c6:
                    db:b4:83:aa:c4:78:41:3a:7d:4b:e1:c8:3e:71:ca:
                    1b:61:59:ea:c6:c4:ca:32:5e:c9:e9:bf:12:29:e6:
                    c6:c3:63:fe:a0:55:da:7a:f1:60:98:4d:26:ed:fa:
                    70:2d
                Exponent: 65537 (0x10001)
        X509v3 extensions:
            X509v3 Key Usage: 
                Digital Signature, Key Encipherment
            X509v3 Basic Constraints: 
                CA:FALSE
            Netscape Cert Type: 
                SSL Server
            Netscape Comment: 
                OpenSSL Generated Server Certificate
            X509v3 Subject Key Identifier: 
                53:3F:ED:5D:09:07:B3:65:7B:AB:45:C9:24:5B:09:77:80:0A:96:ED
            X509v3 Authority Key Identifier: 
                keyid:F4:A7:C0:CC:91:46:AF:64:F3:91:F2:27:F8:C8:B2:6F:8A:87:32:73
                DirName:/C=DE/ST=Hessen/O=privacyidea/CN=CA001
                serial:FB:C8:EB:AC:83:CD:12:07

            X509v3 Extended Key Usage: 
                TLS Web Server Authentication
    Signature Algorithm: sha256WithRSAEncryption
         48:03:b8:16:5d:eb:c9:b6:d9:fc:62:05:b1:2f:b8:a0:fa:68:
         1c:fb:91:7e:1d:bd:b2:38:e6:21:7f:b9:ab:aa:06:7b:eb:b1:
         da:e2:a5:45:7e:cf:39:13:aa:94:8b:4e:41:df:b0:fb:ad:5a:
         71:3b:bd:29:7d:c1:ea:e8:eb:35:6f:8c:3d:1b:ed:bd:05:71:
         73:7f:76:70:23:19:37:fb:8e:e9:b6:aa:6c:99:8e:97:aa:f8:
         6e:05:7a:9d:55:8b:98:c6:21:da:08:73:45:15:34:ef:3a:54:
         e0:a0:3c:78:22:24:e4:1f:b9:09:56:76:41:e7:c4:51:ba:68:
         0c:f0:9f:1b:14:21:d1:d3:50:36:4b:9b:61:60:bb:04:a3:67:
         3b:d9:7f:70:0a:7d:3d:0b:dd:c4:97:dc:16:91:11:85:89:fc:
         ec:0a:ad:8f:08:64:61:bb:41:91:f7:d0:a0:7f:4a:3f:a9:01:
         fa:02:70:e3:46:49:3f:db:c5:96:21:a5:8d:08:46:78:2f:d4:
         92:f2:dc:39:28:0c:45:23:0a:e4:bc:dc:81:b6:3d:1f:82:0e:
         78:70:d8:fa:af:ad:ff:3e:fa:0e:92:f3:07:c9:2f:8d:3b:35:
         d4:ad:38:b7:9c:ee:4d:21:d4:7d:70:67:41:cd:d3:99:67:f9:
         85:66:2f:31
-----BEGIN CERTIFICATE-----
MIIEJjCCAw6gAwIBAgIEEAAA0TANBgkqhkiG9w0BAQsFADBEMQswCQYDVQQGEwJE
RTEPMA0GA1UECAwGSGVzc2VuMRQwEgYDVQQKDAtwcml2YWN5aWRlYTEOMAwGA1UE
AwwFQ0EwMDEwHhcNMTgwODE2MTQxNDAwWhcNMTkwODE2MTQxNDAwWjBUMQswCQYD
VQQGEwJERTEPMA0GA1UECAwGSGVzc2VuMRQwEgYDVQQKDAtwcml2YWN5aWRlYTEe
MBwGA1UEAwwVcmVxdWVzdGVyLmxvY2FsZG9tYWluMIIBIjANBgkqhkiG9w0BAQEF
AAOCAQ8AMIIBCgKCAQEAzb4UT/rOAT9CIhsdnK/dktJ/22y3PjlDQ2sTA/EF9Ad0
vHZpKAuvGY7X/OPNxljyyn8IbVP8BwJEJMa0NEyMBP4zDkDiILoCc1r39U9jbszG
tt9UHTc5fVE2Jl+93D+oi2uirrad1iHn30G4eigqaEjKqC3t4elGXlpybbSEOIeR
/ZQRCyiExsIvKvsB+TZ6CXXRM4g8c0FbyL+UiXCh8MC5LlBTHrEXZGn0LYHgqQ0O
Mum6VYqF8RtvSXm0f4jDDT5UiJs9HziMBPPuamMr9cbbtIOqxHhBOn1L4cg+ccob
YVnqxsTKMl7J6b8SKebGw2P+oFXaevFgmE0m7fpwLQIDAQABo4IBDjCCAQowCwYD
VR0PBAQDAgWgMAkGA1UdEwQCMAAwEQYJYIZIAYb4QgEBBAQDAgZAMDMGCWCGSAGG
+EIBDQQmFiRPcGVuU1NMIEdlbmVyYXRlZCBTZXJ2ZXIgQ2VydGlmaWNhdGUwHQYD
VR0OBBYEFFM/7V0JB7Nle6tFySRbCXeACpbtMHQGA1UdIwRtMGuAFPSnwMyRRq9k
85HyJ/jIsm+KhzJzoUikRjBEMQswCQYDVQQGEwJERTEPMA0GA1UECAwGSGVzc2Vu
MRQwEgYDVQQKDAtwcml2YWN5aWRlYTEOMAwGA1UEAwwFQ0EwMDGCCQD7yOusg80S
BzATBgNVHSUEDDAKBggrBgEFBQcDATANBgkqhkiG9w0BAQsFAAOCAQEASAO4Fl3r
ybbZ/GIFsS+4oPpoHPuRfh29sjjmIX+5q6oGe+ux2uKlRX7POROqlItOQd+w+61a
cTu9KX3B6ujrNW+MPRvtvQVxc392cCMZN/uO6baqbJmOl6r4bgV6nVWLmMYh2ghz
RRU07zpU4KA8eCIk5B+5CVZ2QefEUbpoDPCfGxQh0dNQNkubYWC7BKNnO9l/cAp9
PQvdxJfcFpERhYn87AqtjwhkYbtBkffQoH9KP6kB+gJw40ZJP9vFliGljQhGeC/U
kvLcOSgMRSMK5LzcgbY9H4IOeHDY+q+t/z76DpLzB8kvjTs11K04t5zuTSHUfXBn
Qc3TmWf5hWYvMQ==
-----END CERTIFICATE-----
