Certificate:
    Data:
        Version: 3 (0x2)
        Serial Number: 268435672 (0x100000d8)
    Signature Algorithm: sha256WithRSAEncryption
        Issuer: C=DE, ST=Hessen, O=privacyidea, CN=CA001
        Validity
            Not Before: Jul 30 14:34:43 2018 GMT
            Not After : Jul 30 14:34:43 2019 GMT
        Subject: C=DE, ST=Hessen, O=privacyidea, CN=requester.localdomain
        Subject Public Key Info:
            Public Key Algorithm: rsaEncryption
                Public-Key: (2048 bit)
                Modulus:
                    00:cd:be:14:4f:fa:ce:01:3f:42:22:1b:1d:9c:af:
                    dd:92:d2:7f:db:6c:b7:3e:39:43:43:6b:13:03:f1:
                    05:f4:07:74:bc:76:69:28:0b:af:19:8e:d7:fc:e3:
                    cd:c6:58:f2:ca:7f:08:6d:53:fc:07:02:44:24:c6:
                    b4:34:4c:8c:04:fe:33:0e:40:e2:20:ba:02:73:5a:
                    f7:f5:4f:63:6e:cc:c6:b6:df:54:1d:37:39:7d:51:
                    36:26:5f:bd:dc:3f:a8:8b:6b:a2:ae:b6:9d:d6:21:
                    e7:df:41:b8:7a:28:2a:68:48:ca:a8:2d:ed:e1:e9:
                    46:5e:5a:72:6d:b4:84:38:87:91:fd:94:11:0b:28:
                    84:c6:c2:2f:2a:fb:01:f9:36:7a:09:75:d1:33:88:
                    3c:73:41:5b:c8:bf:94:89:70:a1:f0:c0:b9:2e:50:
                    53:1e:b1:17:64:69:f4:2d:81:e0:a9:0d:0e:32:e9:
                    ba:55:8a:85:f1:1b:6f:49:79:b4:7f:88:c3:0d:3e:
                    54:88:9b:3d:1f:38:8c:04:f3:ee:6a:63:2b:f5:c6:
                    db:b4:83:aa:c4:78:41:3a:7d:4b:e1:c8:3e:71:ca:
                    1b:61:59:ea:c6:c4:ca:32:5e:c9:e9:bf:12:29:e6:
                    c6:c3:63:fe:a0:55:da:7a:f1:60:98:4d:26:ed:fa:
                    70:2d
                Exponent: 65537 (0x10001)
        X509v3 extensions:
            X509v3 Key Usage: 
                Digital Signature, Key Encipherment
            X509v3 Basic Constraints: 
                CA:FALSE
            Netscape Cert Type: 
                SSL Server
            Netscape Comment: 
                OpenSSL Generated Server Certificate
            X509v3 Subject Key Identifier: 
                53:3F:ED:5D:09:07:B3:65:7B:AB:45:C9:24:5B:09:77:80:0A:96:ED
            X509v3 Authority Key Identifier: 
                keyid:F4:A7:C0:CC:91:46:AF:64:F3:91:F2:27:F8:C8:B2:6F:8A:87:32:73
                DirName:/C=DE/ST=Hessen/O=privacyidea/CN=CA001
                serial:FB:C8:EB:AC:83:CD:12:07

            X509v3 Extended Key Usage: 
                TLS Web Server Authentication
    Signature Algorithm: sha256WithRSAEncryption
         6f:c9:6a:cf:09:6c:6e:79:23:e1:8f:f1:ef:75:11:3a:34:7b:
         0d:5a:25:56:0b:af:b6:a8:c2:8b:fd:f0:fb:5d:c0:98:d9:60:
         2f:6f:03:b3:48:53:70:d0:c4:75:2b:49:7c:d7:f3:2c:09:e6:
         aa:be:f1:0a:ec:e8:4e:8b:c3:cd:d8:a9:09:d2:ff:26:b9:83:
         50:ae:bf:8e:bf:d0:0b:54:d8:cf:7b:a4:00:af:e3:06:29:fb:
         a0:ef:b5:ce:c8:af:00:bb:b9:d3:26:ec:3a:1b:02:5f:18:95:
         5c:23:32:fd:f0:9b:fb:1c:19:4d:b6:54:23:88:e4:a5:13:eb:
         28:03:b2:9a:cc:d1:4e:e5:57:dd:94:9f:66:39:b2:7f:ee:a7:
         4d:5e:49:e4:c8:67:53:44:dd:e1:e1:28:1a:03:0b:fd:97:1b:
         87:86:d9:74:6a:e3:19:64:0a:31:06:f6:3a:72:eb:1f:11:de:
         7d:51:e4:f0:b2:b1:c5:58:03:09:76:e6:55:24:9e:96:72:b4:
         97:c0:d6:90:f8:8d:03:45:fd:fc:7c:bd:da:06:29:90:c1:40:
         87:13:24:06:e4:ff:a5:dc:84:d7:c3:d5:8e:d7:22:a2:5c:d1:
         8c:ee:06:02:c5:27:f9:63:06:42:02:e0:0e:52:af:51:f1:63:
         63:fa:0a:5f
-----BEGIN CERTIFICATE-----
MIIEJjCCAw6gAwIBAgIEEAAA2DANBgkqhkiG9w0BAQsFADBEMQswCQYDVQQGEwJE
RTEPMA0GA1UECAwGSGVzc2VuMRQwEgYDVQQKDAtwcml2YWN5aWRlYTEOMAwGA1UE
AwwFQ0EwMDEwHhcNMTgwNzMwMTQzNDQzWhcNMTkwNzMwMTQzNDQzWjBUMQswCQYD
VQQGEwJERTEPMA0GA1UECAwGSGVzc2VuMRQwEgYDVQQKDAtwcml2YWN5aWRlYTEe
MBwGA1UEAwwVcmVxdWVzdGVyLmxvY2FsZG9tYWluMIIBIjANBgkqhkiG9w0BAQEF
AAOCAQ8AMIIBCgKCAQEAzb4UT/rOAT9CIhsdnK/dktJ/22y3PjlDQ2sTA/EF9Ad0
vHZpKAuvGY7X/OPNxljyyn8IbVP8BwJEJMa0NEyMBP4zDkDiILoCc1r39U9jbszG
tt9UHTc5fVE2Jl+93D+oi2uirrad1iHn30G4eigqaEjKqC3t4elGXlpybbSEOIeR
/ZQRCyiExsIvKvsB+TZ6CXXRM4g8c0FbyL+UiXCh8MC5LlBTHrEXZGn0LYHgqQ0O
Mum6VYqF8RtvSXm0f4jDDT5UiJs9HziMBPPuamMr9cbbtIOqxHhBOn1L4cg+ccob
YVnqxsTKMl7J6b8SKebGw2P+oFXaevFgmE0m7fpwLQIDAQABo4IBDjCCAQowCwYD
VR0PBAQDAgWgMAkGA1UdEwQCMAAwEQYJYIZIAYb4QgEBBAQDAgZAMDMGCWCGSAGG
+EIBDQQmFiRPcGVuU1NMIEdlbmVyYXRlZCBTZXJ2ZXIgQ2VydGlmaWNhdGUwHQYD
VR0OBBYEFFM/7V0JB7Nle6tFySRbCXeACpbtMHQGA1UdIwRtMGuAFPSnwMyRRq9k
85HyJ/jIsm+KhzJzoUikRjBEMQswCQYDVQQGEwJERTEPMA0GA1UECAwGSGVzc2Vu
MRQwEgYDVQQKDAtwcml2YWN5aWRlYTEOMAwGA1UEAwwFQ0EwMDGCCQD7yOusg80S
BzATBgNVHSUEDDAKBggrBgEFBQcDATANBgkqhkiG9w0BAQsFAAOCAQEAb8lqzwls
bnkj4Y/x73UROjR7DVolVguvtqjCi/3w+13AmNlgL28Ds0hTcNDEdStJfNfzLAnm
qr7xCuzoTovDzdipCdL/JrmDUK6/jr/QC1TYz3ukAK/jBin7oO+1zsivALu50ybs
OhsCXxiVXCMy/fCb+xwZTbZUI4jkpRPrKAOymszRTuVX3ZSfZjmyf+6nTV5J5Mhn
U0Td4eEoGgML/Zcbh4bZdGrjGWQKMQb2OnLrHxHefVHk8LKxxVgDCXbmVSSelnK0
l8DWkPiNA0X9/Hy92gYpkMFAhxMkBuT/pdyE18PVjtciolzRjO4GAsUn+WMGQgLg
DlKvUfFjY/oKXw==
-----END CERTIFICATE-----
